
FreeRTOS_Counting_Semaphore.elf:     file format elf32-littlearm

Sections:
Idx Name          Size      VMA       LMA       File off  Algn
  0 .isr_vector   00000194  08000000  08000000  00001000  2**0
                  CONTENTS, ALLOC, LOAD, READONLY, DATA
  1 .text         00003798  080001a0  080001a0  000011a0  2**4
                  CONTENTS, ALLOC, LOAD, READONLY, CODE
  2 .rodata       000000fc  08003938  08003938  00004938  2**2
                  CONTENTS, ALLOC, LOAD, READONLY, DATA
  3 .ARM.extab    00000000  08003a34  08003a34  0000506c  2**0
                  CONTENTS
  4 .ARM          00000008  08003a34  08003a34  00004a34  2**2
                  CONTENTS, ALLOC, LOAD, READONLY, DATA
  5 .preinit_array 00000000  08003a3c  08003a3c  0000506c  2**0
                  CONTENTS, ALLOC, LOAD, DATA
  6 .init_array   00000004  08003a3c  08003a3c  00004a3c  2**2
                  CONTENTS, ALLOC, LOAD, DATA
  7 .fini_array   00000004  08003a40  08003a40  00004a40  2**2
                  CONTENTS, ALLOC, LOAD, DATA
  8 .data         0000006c  20000000  08003a44  00005000  2**2
                  CONTENTS, ALLOC, LOAD, DATA
  9 .bss          00004b14  2000006c  08003ab0  0000506c  2**2
                  ALLOC
 10 ._user_heap_stack 00000600  20004b80  08003ab0  00005b80  2**0
                  ALLOC
 11 .ARM.attributes 00000030  00000000  00000000  0000506c  2**0
                  CONTENTS, READONLY
 12 .comment      00000043  00000000  00000000  0000509c  2**0
                  CONTENTS, READONLY
 13 .debug_frame  00000724  00000000  00000000  000050e0  2**2
                  CONTENTS, READONLY, DEBUGGING, OCTETS

Disassembly of section .text:

080001a0 <__do_global_dtors_aux>:
 80001a0:	b510      	push	{r4, lr}
 80001a2:	4c05      	ldr	r4, [pc, #20]	@ (80001b8 <__do_global_dtors_aux+0x18>)
 80001a4:	7823      	ldrb	r3, [r4, #0]
 80001a6:	b933      	cbnz	r3, 80001b6 <__do_global_dtors_aux+0x16>
 80001a8:	4b04      	ldr	r3, [pc, #16]	@ (80001bc <__do_global_dtors_aux+0x1c>)
 80001aa:	b113      	cbz	r3, 80001b2 <__do_global_dtors_aux+0x12>
 80001ac:	4804      	ldr	r0, [pc, #16]	@ (80001c0 <__do_global_dtors_aux+0x20>)
 80001ae:	f3af 8000 	nop.w
 80001b2:	2301      	movs	r3, #1
 80001b4:	7023      	strb	r3, [r4, #0]
 80001b6:	bd10      	pop	{r4, pc}
 80001b8:	2000006c 	.word	0x2000006c
 80001bc:	00000000 	.word	0x00000000
 80001c0:	08003920 	.word	0x08003920

080001c4 <frame_dummy>:
 80001c4:	b508      	push	{r3, lr}
 80001c6:	4b03      	ldr	r3, [pc, #12]	@ (80001d4 <frame_dummy+0x10>)
 80001c8:	b11b      	cbz	r3, 80001d2 <frame_dummy+0xe>
 80001ca:	4903      	ldr	r1, [pc, #12]	@ (80001d8 <frame_dummy+0x14>)
 80001cc:	4803      	ldr	r0, [pc, #12]	@ (80001dc <frame_dummy+0x18>)
 80001ce:	f3af 8000 	nop.w
 80001d2:	bd08      	pop	{r3, pc}
 80001d4:	00000000 	.word	0x00000000
 80001d8:	20000070 	.word	0x20000070
 80001dc:	08003920 	.word	0x08003920

080001e0 <__aeabi_uldivmod>:
 80001e0:	b953      	cbnz	r3, 80001f8 <__aeabi_uldivmod+0x18>
 80001e2:	b94a      	cbnz	r2, 80001f8 <__aeabi_uldivmod+0x18>
 80001e4:	2900      	cmp	r1, #0
 80001e6:	bf08      	it	eq
 80001e8:	2800      	cmpeq	r0, #0
 80001ea:	bf1c      	itt	ne
 80001ec:	f04f 31ff 	movne.w	r1, #4294967295
 80001f0:	f04f 30ff 	movne.w	r0, #4294967295
 80001f4:	f000 b96a 	b.w	80004cc <__aeabi_idiv0>
 80001f8:	f1ad 0c08 	sub.w	ip, sp, #8
 80001fc:	e96d ce04 	strd	ip, lr, [sp, #-16]!
 8000200:	f000 f806 	bl	8000210 <__udivmoddi4>
 8000204:	f8dd e004 	ldr.w	lr, [sp, #4]
 8000208:	e9dd 2302 	ldrd	r2, r3, [sp, #8]
 800020c:	b004      	add	sp, #16
 800020e:	4770      	bx	lr

08000210 <__udivmoddi4>:
 8000210:	e92d 47f0 	stmdb	sp!, {r4, r5, r6, r7, r8, r9, sl, lr}
 8000214:	9d08      	ldr	r5, [sp, #32]
 8000216:	460c      	mov	r4, r1
 8000218:	2b00      	cmp	r3, #0
 800021a:	d14e      	bne.n	80002ba <__udivmoddi4+0xaa>
 800021c:	4694      	mov	ip, r2
 800021e:	458c      	cmp	ip, r1
 8000220:	4686      	mov	lr, r0
 8000222:	fab2 f282 	clz	r2, r2
 8000226:	d962      	bls.n	80002ee <__udivmoddi4+0xde>
 8000228:	b14a      	cbz	r2, 800023e <__udivmoddi4+0x2e>
 800022a:	f1c2 0320 	rsb	r3, r2, #32
 800022e:	4091      	lsls	r1, r2
 8000230:	fa20 f303 	lsr.w	r3, r0, r3
 8000234:	fa0c fc02 	lsl.w	ip, ip, r2
 8000238:	4319      	orrs	r1, r3
 800023a:	fa00 fe02 	lsl.w	lr, r0, r2
 800023e:	ea4f 471c 	mov.w	r7, ip, lsr #16
 8000242:	fa1f f68c 	uxth.w	r6, ip
 8000246:	fbb1 f4f7 	udiv	r4, r1, r7
 800024a:	ea4f 431e 	mov.w	r3, lr, lsr #16
 800024e:	fb07 1114 	mls	r1, r7, r4, r1
 8000252:	ea43 4301 	orr.w	r3, r3, r1, lsl #16
 8000256:	fb04 f106 	mul.w	r1, r4, r6
 800025a:	4299      	cmp	r1, r3
 800025c:	d90a      	bls.n	8000274 <__udivmoddi4+0x64>
 800025e:	eb1c 0303 	adds.w	r3, ip, r3
 8000262:	f104 30ff 	add.w	r0, r4, #4294967295
 8000266:	f080 8112 	bcs.w	800048e <__udivmoddi4+0x27e>
 800026a:	4299      	cmp	r1, r3
 800026c:	f240 810f 	bls.w	800048e <__udivmoddi4+0x27e>
 8000270:	3c02      	subs	r4, #2
 8000272:	4463      	add	r3, ip
 8000274:	1a59      	subs	r1, r3, r1
 8000276:	fa1f f38e 	uxth.w	r3, lr
 800027a:	fbb1 f0f7 	udiv	r0, r1, r7
 800027e:	fb07 1110 	mls	r1, r7, r0, r1
 8000282:	ea43 4301 	orr.w	r3, r3, r1, lsl #16
 8000286:	fb00 f606 	mul.w	r6, r0, r6
 800028a:	429e      	cmp	r6, r3
 800028c:	d90a      	bls.n	80002a4 <__udivmoddi4+0x94>
 800028e:	eb1c 0303 	adds.w	r3, ip, r3
 8000292:	f100 31ff 	add.w	r1, r0, #4294967295
 8000296:	f080 80fc 	bcs.w	8000492 <__udivmoddi4+0x282>
 800029a:	429e      	cmp	r6, r3
 800029c:	f240 80f9 	bls.w	8000492 <__udivmoddi4+0x282>
 80002a0:	4463      	add	r3, ip
 80002a2:	3802      	subs	r0, #2
 80002a4:	1b9b      	subs	r3, r3, r6
 80002a6:	ea40 4004 	orr.w	r0, r0, r4, lsl #16
 80002aa:	2100      	movs	r1, #0
 80002ac:	b11d      	cbz	r5, 80002b6 <__udivmoddi4+0xa6>
 80002ae:	40d3      	lsrs	r3, r2
 80002b0:	2200      	movs	r2, #0
 80002b2:	e9c5 3200 	strd	r3, r2, [r5]
 80002b6:	e8bd 87f0 	ldmia.w	sp!, {r4, r5, r6, r7, r8, r9, sl, pc}
 80002ba:	428b      	cmp	r3, r1
 80002bc:	d905      	bls.n	80002ca <__udivmoddi4+0xba>
 80002be:	b10d      	cbz	r5, 80002c4 <__udivmoddi4+0xb4>
 80002c0:	e9c5 0100 	strd	r0, r1, [r5]
 80002c4:	2100      	movs	r1, #0
 80002c6:	4608      	mov	r0, r1
 80002c8:	e7f5      	b.n	80002b6 <__udivmoddi4+0xa6>
 80002ca:	fab3 f183 	clz	r1, r3
 80002ce:	2900      	cmp	r1, #0
 80002d0:	d146      	bne.n	8000360 <__udivmoddi4+0x150>
 80002d2:	42a3      	cmp	r3, r4
 80002d4:	d302      	bcc.n	80002dc <__udivmoddi4+0xcc>
 80002d6:	4290      	cmp	r0, r2
 80002d8:	f0c0 80f0 	bcc.w	80004bc <__udivmoddi4+0x2ac>
 80002dc:	1a86      	subs	r6, r0, r2
 80002de:	eb64 0303 	sbc.w	r3, r4, r3
 80002e2:	2001      	movs	r0, #1
 80002e4:	2d00      	cmp	r5, #0
 80002e6:	d0e6      	beq.n	80002b6 <__udivmoddi4+0xa6>
 80002e8:	e9c5 6300 	strd	r6, r3, [r5]
 80002ec:	e7e3      	b.n	80002b6 <__udivmoddi4+0xa6>
 80002ee:	2a00      	cmp	r2, #0
 80002f0:	f040 8090 	bne.w	8000414 <__udivmoddi4+0x204>
 80002f4:	eba1 040c 	sub.w	r4, r1, ip
 80002f8:	ea4f 481c 	mov.w	r8, ip, lsr #16
 80002fc:	fa1f f78c 	uxth.w	r7, ip
 8000300:	2101      	movs	r1, #1
 8000302:	fbb4 f6f8 	udiv	r6, r4, r8
 8000306:	ea4f 431e 	mov.w	r3, lr, lsr #16
 800030a:	fb08 4416 	mls	r4, r8, r6, r4
 800030e:	ea43 4304 	orr.w	r3, r3, r4, lsl #16
 8000312:	fb07 f006 	mul.w	r0, r7, r6
 8000316:	4298      	cmp	r0, r3
 8000318:	d908      	bls.n	800032c <__udivmoddi4+0x11c>
 800031a:	eb1c 0303 	adds.w	r3, ip, r3
 800031e:	f106 34ff 	add.w	r4, r6, #4294967295
 8000322:	d202      	bcs.n	800032a <__udivmoddi4+0x11a>
 8000324:	4298      	cmp	r0, r3
 8000326:	f200 80cd 	bhi.w	80004c4 <__udivmoddi4+0x2b4>
 800032a:	4626      	mov	r6, r4
 800032c:	1a1c      	subs	r4, r3, r0
 800032e:	fa1f f38e 	uxth.w	r3, lr
 8000332:	fbb4 f0f8 	udiv	r0, r4, r8
 8000336:	fb08 4410 	mls	r4, r8, r0, r4
 800033a:	ea43 4304 	orr.w	r3, r3, r4, lsl #16
 800033e:	fb00 f707 	mul.w	r7, r0, r7
 8000342:	429f      	cmp	r7, r3
 8000344:	d908      	bls.n	8000358 <__udivmoddi4+0x148>
 8000346:	eb1c 0303 	adds.w	r3, ip, r3
 800034a:	f100 34ff 	add.w	r4, r0, #4294967295
 800034e:	d202      	bcs.n	8000356 <__udivmoddi4+0x146>
 8000350:	429f      	cmp	r7, r3
 8000352:	f200 80b0 	bhi.w	80004b6 <__udivmoddi4+0x2a6>
 8000356:	4620      	mov	r0, r4
 8000358:	1bdb      	subs	r3, r3, r7
 800035a:	ea40 4006 	orr.w	r0, r0, r6, lsl #16
 800035e:	e7a5      	b.n	80002ac <__udivmoddi4+0x9c>
 8000360:	f1c1 0620 	rsb	r6, r1, #32
 8000364:	408b      	lsls	r3, r1
 8000366:	fa22 f706 	lsr.w	r7, r2, r6
 800036a:	431f      	orrs	r7, r3
 800036c:	fa20 fc06 	lsr.w	ip, r0, r6
 8000370:	fa04 f301 	lsl.w	r3, r4, r1
 8000374:	ea43 030c 	orr.w	r3, r3, ip
 8000378:	40f4      	lsrs	r4, r6
 800037a:	fa00 f801 	lsl.w	r8, r0, r1
 800037e:	0c38      	lsrs	r0, r7, #16
 8000380:	ea4f 4913 	mov.w	r9, r3, lsr #16
 8000384:	fbb4 fef0 	udiv	lr, r4, r0
 8000388:	fa1f fc87 	uxth.w	ip, r7
 800038c:	fb00 441e 	mls	r4, r0, lr, r4
 8000390:	ea49 4404 	orr.w	r4, r9, r4, lsl #16
 8000394:	fb0e f90c 	mul.w	r9, lr, ip
 8000398:	45a1      	cmp	r9, r4
 800039a:	fa02 f201 	lsl.w	r2, r2, r1
 800039e:	d90a      	bls.n	80003b6 <__udivmoddi4+0x1a6>
 80003a0:	193c      	adds	r4, r7, r4
 80003a2:	f10e 3aff 	add.w	sl, lr, #4294967295
 80003a6:	f080 8084 	bcs.w	80004b2 <__udivmoddi4+0x2a2>
 80003aa:	45a1      	cmp	r9, r4
 80003ac:	f240 8081 	bls.w	80004b2 <__udivmoddi4+0x2a2>
 80003b0:	f1ae 0e02 	sub.w	lr, lr, #2
 80003b4:	443c      	add	r4, r7
 80003b6:	eba4 0409 	sub.w	r4, r4, r9
 80003ba:	fa1f f983 	uxth.w	r9, r3
 80003be:	fbb4 f3f0 	udiv	r3, r4, r0
 80003c2:	fb00 4413 	mls	r4, r0, r3, r4
 80003c6:	ea49 4404 	orr.w	r4, r9, r4, lsl #16
 80003ca:	fb03 fc0c 	mul.w	ip, r3, ip
 80003ce:	45a4      	cmp	ip, r4
 80003d0:	d907      	bls.n	80003e2 <__udivmoddi4+0x1d2>
 80003d2:	193c      	adds	r4, r7, r4
 80003d4:	f103 30ff 	add.w	r0, r3, #4294967295
 80003d8:	d267      	bcs.n	80004aa <__udivmoddi4+0x29a>
 80003da:	45a4      	cmp	ip, r4
 80003dc:	d965      	bls.n	80004aa <__udivmoddi4+0x29a>
 80003de:	3b02      	subs	r3, #2
 80003e0:	443c      	add	r4, r7
 80003e2:	ea43 400e 	orr.w	r0, r3, lr, lsl #16
 80003e6:	fba0 9302 	umull	r9, r3, r0, r2
 80003ea:	eba4 040c 	sub.w	r4, r4, ip
 80003ee:	429c      	cmp	r4, r3
 80003f0:	46ce      	mov	lr, r9
 80003f2:	469c      	mov	ip, r3
 80003f4:	d351      	bcc.n	800049a <__udivmoddi4+0x28a>
 80003f6:	d04e      	beq.n	8000496 <__udivmoddi4+0x286>
 80003f8:	b155      	cbz	r5, 8000410 <__udivmoddi4+0x200>
 80003fa:	ebb8 030e 	subs.w	r3, r8, lr
 80003fe:	eb64 040c 	sbc.w	r4, r4, ip
 8000402:	fa04 f606 	lsl.w	r6, r4, r6
 8000406:	40cb      	lsrs	r3, r1
 8000408:	431e      	orrs	r6, r3
 800040a:	40cc      	lsrs	r4, r1
 800040c:	e9c5 6400 	strd	r6, r4, [r5]
 8000410:	2100      	movs	r1, #0
 8000412:	e750      	b.n	80002b6 <__udivmoddi4+0xa6>
 8000414:	f1c2 0320 	rsb	r3, r2, #32
 8000418:	fa20 f103 	lsr.w	r1, r0, r3
 800041c:	fa0c fc02 	lsl.w	ip, ip, r2
 8000420:	fa24 f303 	lsr.w	r3, r4, r3
 8000424:	4094      	lsls	r4, r2
 8000426:	430c      	orrs	r4, r1
 8000428:	ea4f 481c 	mov.w	r8, ip, lsr #16
 800042c:	fa00 fe02 	lsl.w	lr, r0, r2
 8000430:	fa1f f78c 	uxth.w	r7, ip
 8000434:	fbb3 f0f8 	udiv	r0, r3, r8
 8000438:	fb08 3110 	mls	r1, r8, r0, r3
 800043c:	0c23      	lsrs	r3, r4, #16
 800043e:	ea43 4301 	orr.w	r3, r3, r1, lsl #16
 8000442:	fb00 f107 	mul.w	r1, r0, r7
 8000446:	4299      	cmp	r1, r3
 8000448:	d908      	bls.n	800045c <__udivmoddi4+0x24c>
 800044a:	eb1c 0303 	adds.w	r3, ip, r3
 800044e:	f100 36ff 	add.w	r6, r0, #4294967295
 8000452:	d22c      	bcs.n	80004ae <__udivmoddi4+0x29e>
 8000454:	4299      	cmp	r1, r3
 8000456:	d92a      	bls.n	80004ae <__udivmoddi4+0x29e>
 8000458:	3802      	subs	r0, #2
 800045a:	4463      	add	r3, ip
 800045c:	1a5b      	subs	r3, r3, r1
 800045e:	b2a4      	uxth	r4, r4
 8000460:	fbb3 f1f8 	udiv	r1, r3, r8
 8000464:	fb08 3311 	mls	r3, r8, r1, r3
 8000468:	ea44 4403 	orr.w	r4, r4, r3, lsl #16
 800046c:	fb01 f307 	mul.w	r3, r1, r7
 8000470:	42a3      	cmp	r3, r4
 8000472:	d908      	bls.n	8000486 <__udivmoddi4+0x276>
 8000474:	eb1c 0404 	adds.w	r4, ip, r4
 8000478:	f101 36ff 	add.w	r6, r1, #4294967295
 800047c:	d213      	bcs.n	80004a6 <__udivmoddi4+0x296>
 800047e:	42a3      	cmp	r3, r4
 8000480:	d911      	bls.n	80004a6 <__udivmoddi4+0x296>
 8000482:	3902      	subs	r1, #2
 8000484:	4464      	add	r4, ip
 8000486:	1ae4      	subs	r4, r4, r3
 8000488:	ea41 4100 	orr.w	r1, r1, r0, lsl #16
 800048c:	e739      	b.n	8000302 <__udivmoddi4+0xf2>
 800048e:	4604      	mov	r4, r0
 8000490:	e6f0      	b.n	8000274 <__udivmoddi4+0x64>
 8000492:	4608      	mov	r0, r1
 8000494:	e706      	b.n	80002a4 <__udivmoddi4+0x94>
 8000496:	45c8      	cmp	r8, r9
 8000498:	d2ae      	bcs.n	80003f8 <__udivmoddi4+0x1e8>
 800049a:	ebb9 0e02 	subs.w	lr, r9, r2
 800049e:	eb63 0c07 	sbc.w	ip, r3, r7
 80004a2:	3801      	subs	r0, #1
 80004a4:	e7a8      	b.n	80003f8 <__udivmoddi4+0x1e8>
 80004a6:	4631      	mov	r1, r6
 80004a8:	e7ed      	b.n	8000486 <__udivmoddi4+0x276>
 80004aa:	4603      	mov	r3, r0
 80004ac:	e799      	b.n	80003e2 <__udivmoddi4+0x1d2>
 80004ae:	4630      	mov	r0, r6
 80004b0:	e7d4      	b.n	800045c <__udivmoddi4+0x24c>
 80004b2:	46d6      	mov	lr, sl
 80004b4:	e77f      	b.n	80003b6 <__udivmoddi4+0x1a6>
 80004b6:	4463      	add	r3, ip
 80004b8:	3802      	subs	r0, #2
 80004ba:	e74d      	b.n	8000358 <__udivmoddi4+0x148>
 80004bc:	4606      	mov	r6, r0
 80004be:	4623      	mov	r3, r4
 80004c0:	4608      	mov	r0, r1
 80004c2:	e70f      	b.n	80002e4 <__udivmoddi4+0xd4>
 80004c4:	3e02      	subs	r6, #2
 80004c6:	4463      	add	r3, ip
 80004c8:	e730      	b.n	800032c <__udivmoddi4+0x11c>
 80004ca:	bf00      	nop

080004cc <__aeabi_idiv0>:
 80004cc:	4770      	bx	lr
 80004ce:	bf00      	nop

080004d0 <TaskOne>:
 80004d0:	e7fe      	b.n	80004d0 <TaskOne>

080004d2 <Tasktwo>:
 80004d2:	b508      	push	{r3, lr}
 80004d4:	2001      	movs	r0, #1
 80004d6:	f000 ff8c 	bl	80013f2 <osDelay>
 80004da:	e7fb      	b.n	80004d4 <Tasktwo+0x2>

080004dc <TaskThree>:
 80004dc:	b508      	push	{r3, lr}
 80004de:	2001      	movs	r0, #1
 80004e0:	f000 ff87 	bl	80013f2 <osDelay>
 80004e4:	e7fb      	b.n	80004de <TaskThree+0x2>
	...

080004e8 <MX_FREERTOS_Init>:
 80004e8:	b508      	push	{r3, lr}
 80004ea:	4a0e      	ldr	r2, [pc, #56]	@ (8000524 <MX_FREERTOS_Init+0x3c>)
 80004ec:	2100      	movs	r1, #0
 80004ee:	2003      	movs	r0, #3
 80004f0:	f000 ff8b 	bl	800140a <osSemaphoreNew>
 80004f4:	4b0c      	ldr	r3, [pc, #48]	@ (8000528 <MX_FREERTOS_Init+0x40>)
 80004f6:	4a0d      	ldr	r2, [pc, #52]	@ (800052c <MX_FREERTOS_Init+0x44>)
 80004f8:	6018      	str	r0, [r3, #0]
 80004fa:	2100      	movs	r1, #0
 80004fc:	480c      	ldr	r0, [pc, #48]	@ (8000530 <MX_FREERTOS_Init+0x48>)
 80004fe:	f000 ff31 	bl	8001364 <osThreadNew>
 8000502:	4b0c      	ldr	r3, [pc, #48]	@ (8000534 <MX_FREERTOS_Init+0x4c>)
 8000504:	4a0c      	ldr	r2, [pc, #48]	@ (8000538 <MX_FREERTOS_Init+0x50>)
 8000506:	6018      	str	r0, [r3, #0]
 8000508:	2100      	movs	r1, #0
 800050a:	480c      	ldr	r0, [pc, #48]	@ (800053c <MX_FREERTOS_Init+0x54>)
 800050c:	f000 ff2a 	bl	8001364 <osThreadNew>
 8000510:	4b0b      	ldr	r3, [pc, #44]	@ (8000540 <MX_FREERTOS_Init+0x58>)
 8000512:	4a0c      	ldr	r2, [pc, #48]	@ (8000544 <MX_FREERTOS_Init+0x5c>)
 8000514:	6018      	str	r0, [r3, #0]
 8000516:	2100      	movs	r1, #0
 8000518:	480b      	ldr	r0, [pc, #44]	@ (8000548 <MX_FREERTOS_Init+0x60>)
 800051a:	f000 ff23 	bl	8001364 <osThreadNew>
 800051e:	4b0b      	ldr	r3, [pc, #44]	@ (800054c <MX_FREERTOS_Init+0x64>)
 8000520:	6018      	str	r0, [r3, #0]
 8000522:	bd08      	pop	{r3, pc}
 8000524:	08003968 	.word	0x08003968
 8000528:	20000088 	.word	0x20000088
 800052c:	080039c0 	.word	0x080039c0
 8000530:	080004d1 	.word	0x080004d1
 8000534:	20000094 	.word	0x20000094
 8000538:	0800399c 	.word	0x0800399c
 800053c:	080004d3 	.word	0x080004d3
 8000540:	20000090 	.word	0x20000090
 8000544:	08003978 	.word	0x08003978
 8000548:	080004dd 	.word	0x080004dd
 800054c:	2000008c 	.word	0x2000008c

08000550 <MX_GPIO_Init>:
 8000550:	b510      	push	{r4, lr}
 8000552:	2400      	movs	r4, #0
 8000554:	b088      	sub	sp, #32
 8000556:	e9cd 4405 	strd	r4, r4, [sp, #20]
 800055a:	4b15      	ldr	r3, [pc, #84]	@ (80005b0 <MX_GPIO_Init+0x60>)
 800055c:	9401      	str	r4, [sp, #4]
 800055e:	9407      	str	r4, [sp, #28]
 8000560:	6b1a      	ldr	r2, [r3, #48]	@ 0x30
 8000562:	4814      	ldr	r0, [pc, #80]	@ (80005b4 <MX_GPIO_Init+0x64>)
 8000564:	f042 0280 	orr.w	r2, r2, #128	@ 0x80
 8000568:	631a      	str	r2, [r3, #48]	@ 0x30
 800056a:	6b1a      	ldr	r2, [r3, #48]	@ 0x30
 800056c:	f002 0280 	and.w	r2, r2, #128	@ 0x80
 8000570:	9201      	str	r2, [sp, #4]
 8000572:	9a01      	ldr	r2, [sp, #4]
 8000574:	9402      	str	r4, [sp, #8]
 8000576:	6b1a      	ldr	r2, [r3, #48]	@ 0x30
 8000578:	f042 0202 	orr.w	r2, r2, #2
 800057c:	631a      	str	r2, [r3, #48]	@ 0x30
 800057e:	6b1b      	ldr	r3, [r3, #48]	@ 0x30
 8000580:	f003 0302 	and.w	r3, r3, #2
 8000584:	9302      	str	r3, [sp, #8]
 8000586:	9b02      	ldr	r3, [sp, #8]
 8000588:	f44f 6280 	mov.w	r2, #1024	@ 0x400
 800058c:	f44f 1388 	mov.w	r3, #1114112	@ 0x110000
 8000590:	a903      	add	r1, sp, #12
 8000592:	e9cd 2303 	strd	r2, r3, [sp, #12]
 8000596:	f000 f9e1 	bl	800095c <HAL_GPIO_Init>
 800059a:	4622      	mov	r2, r4
 800059c:	2105      	movs	r1, #5
 800059e:	2028      	movs	r0, #40	@ 0x28
 80005a0:	f000 f99c 	bl	80008dc <HAL_NVIC_SetPriority>
 80005a4:	2028      	movs	r0, #40	@ 0x28
 80005a6:	f000 f9cb 	bl	8000940 <HAL_NVIC_EnableIRQ>
 80005aa:	b008      	add	sp, #32
 80005ac:	bd10      	pop	{r4, pc}
 80005ae:	bf00      	nop
 80005b0:	40023800 	.word	0x40023800
 80005b4:	40020400 	.word	0x40020400

080005b8 <HAL_GPIO_EXTI_Callback>:
 80005b8:	b508      	push	{r3, lr}
 80005ba:	4b04      	ldr	r3, [pc, #16]	@ (80005cc <HAL_GPIO_EXTI_Callback+0x14>)
 80005bc:	6818      	ldr	r0, [r3, #0]
 80005be:	f000 ff6e 	bl	800149e <osSemaphoreRelease>
 80005c2:	e8bd 4008 	ldmia.w	sp!, {r3, lr}
 80005c6:	4802      	ldr	r0, [pc, #8]	@ (80005d0 <HAL_GPIO_EXTI_Callback+0x18>)
 80005c8:	f002 be08 	b.w	80031dc <puts>
 80005cc:	20000088 	.word	0x20000088
 80005d0:	080039e4 	.word	0x080039e4

080005d4 <SystemClock_Config>:
 80005d4:	b500      	push	{lr}
 80005d6:	b095      	sub	sp, #84	@ 0x54
 80005d8:	222c      	movs	r2, #44	@ 0x2c
 80005da:	2100      	movs	r1, #0
 80005dc:	a809      	add	r0, sp, #36	@ 0x24
 80005de:	f002 fedd 	bl	800339c <memset>
 80005e2:	2214      	movs	r2, #20
 80005e4:	2100      	movs	r1, #0
 80005e6:	a803      	add	r0, sp, #12
 80005e8:	f002 fed8 	bl	800339c <memset>
 80005ec:	2200      	movs	r2, #0
 80005ee:	4b1a      	ldr	r3, [pc, #104]	@ (8000658 <SystemClock_Config+0x84>)
 80005f0:	9201      	str	r2, [sp, #4]
 80005f2:	6c19      	ldr	r1, [r3, #64]	@ 0x40
 80005f4:	f041 5180 	orr.w	r1, r1, #268435456	@ 0x10000000
 80005f8:	6419      	str	r1, [r3, #64]	@ 0x40
 80005fa:	6c1b      	ldr	r3, [r3, #64]	@ 0x40
 80005fc:	4917      	ldr	r1, [pc, #92]	@ (800065c <SystemClock_Config+0x88>)
 80005fe:	f003 5380 	and.w	r3, r3, #268435456	@ 0x10000000
 8000602:	9301      	str	r3, [sp, #4]
 8000604:	9b01      	ldr	r3, [sp, #4]
 8000606:	9202      	str	r2, [sp, #8]
 8000608:	680b      	ldr	r3, [r1, #0]
 800060a:	f423 4340 	bic.w	r3, r3, #49152	@ 0xc000
 800060e:	f443 4300 	orr.w	r3, r3, #32768	@ 0x8000
 8000612:	600b      	str	r3, [r1, #0]
 8000614:	680b      	ldr	r3, [r1, #0]
 8000616:	920e      	str	r2, [sp, #56]	@ 0x38
 8000618:	f403 4340 	and.w	r3, r3, #49152	@ 0xc000
 800061c:	9302      	str	r3, [sp, #8]
 800061e:	9b02      	ldr	r3, [sp, #8]
 8000620:	2302      	movs	r3, #2
 8000622:	9308      	str	r3, [sp, #32]
 8000624:	2001      	movs	r0, #1
 8000626:	2310      	movs	r3, #16
 8000628:	e9cd 030b 	strd	r0, r3, [sp, #44]	@ 0x2c
 800062c:	a808      	add	r0, sp, #32
 800062e:	f000 fa65 	bl	8000afc <HAL_RCC_OscConfig>
 8000632:	4601      	mov	r1, r0
 8000634:	b108      	cbz	r0, 800063a <SystemClock_Config+0x66>
 8000636:	b672      	cpsid	i
 8000638:	e7fe      	b.n	8000638 <SystemClock_Config+0x64>
 800063a:	230f      	movs	r3, #15
 800063c:	e9cd 3003 	strd	r3, r0, [sp, #12]
 8000640:	e9cd 0005 	strd	r0, r0, [sp, #20]
 8000644:	9007      	str	r0, [sp, #28]
 8000646:	a803      	add	r0, sp, #12
 8000648:	f000 fc34 	bl	8000eb4 <HAL_RCC_ClockConfig>
 800064c:	b108      	cbz	r0, 8000652 <SystemClock_Config+0x7e>
 800064e:	b672      	cpsid	i
 8000650:	e7fe      	b.n	8000650 <SystemClock_Config+0x7c>
 8000652:	b015      	add	sp, #84	@ 0x54
 8000654:	f85d fb04 	ldr.w	pc, [sp], #4
 8000658:	40023800 	.word	0x40023800
 800065c:	40007000 	.word	0x40007000

08000660 <main>:
 8000660:	b508      	push	{r3, lr}
 8000662:	f000 f8fd 	bl	8000860 <HAL_Init>
 8000666:	f7ff ffb5 	bl	80005d4 <SystemClock_Config>
 800066a:	f7ff ff71 	bl	8000550 <MX_GPIO_Init>
 800066e:	f000 fe4d 	bl	800130c <osKernelInitialize>
 8000672:	f7ff ff39 	bl	80004e8 <MX_FREERTOS_Init>
 8000676:	f000 fe5b 	bl	8001330 <osKernelStart>
 800067a:	e7fe      	b.n	800067a <main+0x1a>

0800067c <HAL_TIM_PeriodElapsedCallback>:
 800067c:	6802      	ldr	r2, [r0, #0]
 800067e:	4b03      	ldr	r3, [pc, #12]	@ (800068c <HAL_TIM_PeriodElapsedCallback+0x10>)
 8000680:	429a      	cmp	r2, r3
 8000682:	d101      	bne.n	8000688 <HAL_TIM_PeriodElapsedCallback+0xc>
 8000684:	f000 b906 	b.w	8000894 <HAL_IncTick>
 8000688:	4770      	bx	lr
 800068a:	bf00      	nop
 800068c:	40000800 	.word	0x40000800

08000690 <HAL_MspInit>:
 8000690:	b082      	sub	sp, #8
 8000692:	4b0e      	ldr	r3, [pc, #56]	@ (80006cc <HAL_MspInit+0x3c>)
 8000694:	2200      	movs	r2, #0
 8000696:	9200      	str	r2, [sp, #0]
 8000698:	6c59      	ldr	r1, [r3, #68]	@ 0x44
 800069a:	f441 4180 	orr.w	r1, r1, #16384	@ 0x4000
 800069e:	6459      	str	r1, [r3, #68]	@ 0x44
 80006a0:	6c59      	ldr	r1, [r3, #68]	@ 0x44
 80006a2:	f401 4180 	and.w	r1, r1, #16384	@ 0x4000
 80006a6:	9100      	str	r1, [sp, #0]
 80006a8:	9900      	ldr	r1, [sp, #0]
 80006aa:	9201      	str	r2, [sp, #4]
 80006ac:	6c19      	ldr	r1, [r3, #64]	@ 0x40
 80006ae:	f041 5180 	orr.w	r1, r1, #268435456	@ 0x10000000
 80006b2:	6419      	str	r1, [r3, #64]	@ 0x40
 80006b4:	6c1b      	ldr	r3, [r3, #64]	@ 0x40
 80006b6:	f003 5380 	and.w	r3, r3, #268435456	@ 0x10000000
 80006ba:	9301      	str	r3, [sp, #4]
 80006bc:	9b01      	ldr	r3, [sp, #4]
 80006be:	210f      	movs	r1, #15
 80006c0:	f06f 0001 	mvn.w	r0, #1
 80006c4:	b002      	add	sp, #8
 80006c6:	f000 b909 	b.w	80008dc <HAL_NVIC_SetPriority>
 80006ca:	bf00      	nop
 80006cc:	40023800 	.word	0x40023800

080006d0 <HAL_InitTick>:
 80006d0:	b530      	push	{r4, r5, lr}
 80006d2:	4601      	mov	r1, r0
 80006d4:	b089      	sub	sp, #36	@ 0x24
 80006d6:	2200      	movs	r2, #0
 80006d8:	201e      	movs	r0, #30
 80006da:	f000 f8ff 	bl	80008dc <HAL_NVIC_SetPriority>
 80006de:	201e      	movs	r0, #30
 80006e0:	f000 f92e 	bl	8000940 <HAL_NVIC_EnableIRQ>
 80006e4:	2500      	movs	r5, #0
 80006e6:	4b14      	ldr	r3, [pc, #80]	@ (8000738 <HAL_InitTick+0x68>)
 80006e8:	9502      	str	r5, [sp, #8]
 80006ea:	6c1a      	ldr	r2, [r3, #64]	@ 0x40
 80006ec:	4c13      	ldr	r4, [pc, #76]	@ (800073c <HAL_InitTick+0x6c>)
 80006ee:	f042 0204 	orr.w	r2, r2, #4
 80006f2:	641a      	str	r2, [r3, #64]	@ 0x40
 80006f4:	6c1b      	ldr	r3, [r3, #64]	@ 0x40
 80006f6:	f003 0304 	and.w	r3, r3, #4
 80006fa:	9302      	str	r3, [sp, #8]
 80006fc:	a901      	add	r1, sp, #4
 80006fe:	a803      	add	r0, sp, #12
 8000700:	9b02      	ldr	r3, [sp, #8]
 8000702:	f000 fc81 	bl	8001008 <HAL_RCC_GetClockConfig>
 8000706:	f000 fc6f 	bl	8000fe8 <HAL_RCC_GetPCLK1Freq>
 800070a:	4b0d      	ldr	r3, [pc, #52]	@ (8000740 <HAL_InitTick+0x70>)
 800070c:	6023      	str	r3, [r4, #0]
 800070e:	f240 33e7 	movw	r3, #999	@ 0x3e7
 8000712:	60e3      	str	r3, [r4, #12]
 8000714:	4b0b      	ldr	r3, [pc, #44]	@ (8000744 <HAL_InitTick+0x74>)
 8000716:	fbb0 f0f3 	udiv	r0, r0, r3
 800071a:	3801      	subs	r0, #1
 800071c:	6060      	str	r0, [r4, #4]
 800071e:	4620      	mov	r0, r4
 8000720:	6125      	str	r5, [r4, #16]
 8000722:	60a5      	str	r5, [r4, #8]
 8000724:	f000 fdb6 	bl	8001294 <HAL_TIM_Base_Init>
 8000728:	b920      	cbnz	r0, 8000734 <HAL_InitTick+0x64>
 800072a:	4620      	mov	r0, r4
 800072c:	f000 fc8c 	bl	8001048 <HAL_TIM_Base_Start_IT>
 8000730:	b009      	add	sp, #36	@ 0x24
 8000732:	bd30      	pop	{r4, r5, pc}
 8000734:	2001      	movs	r0, #1
 8000736:	e7fb      	b.n	8000730 <HAL_InitTick+0x60>
 8000738:	40023800 	.word	0x40023800
 800073c:	20000098 	.word	0x20000098
 8000740:	40000800 	.word	0x40000800
 8000744:	000f4240 	.word	0x000f4240

08000748 <NMI_Handler>:
 8000748:	e7fe      	b.n	8000748 <NMI_Handler>

0800074a <HardFault_Handler>:
 800074a:	e7fe      	b.n	800074a <HardFault_Handler>

0800074c <MemManage_Handler>:
 800074c:	e7fe      	b.n	800074c <MemManage_Handler>

0800074e <BusFault_Handler>:
 800074e:	e7fe      	b.n	800074e <BusFault_Handler>

08000750 <UsageFault_Handler>:
 8000750:	e7fe      	b.n	8000750 <UsageFault_Handler>

08000752 <DebugMon_Handler>:
 8000752:	4770      	bx	lr

08000754 <TIM4_IRQHandler>:
 8000754:	4801      	ldr	r0, [pc, #4]	@ (800075c <TIM4_IRQHandler+0x8>)
 8000756:	f000 bcad 	b.w	80010b4 <HAL_TIM_IRQHandler>
 800075a:	bf00      	nop
 800075c:	20000098 	.word	0x20000098

08000760 <EXTI15_10_IRQHandler>:
 8000760:	f44f 6080 	mov.w	r0, #1024	@ 0x400
 8000764:	f000 b9c0 	b.w	8000ae8 <HAL_GPIO_EXTI_IRQHandler>

08000768 <_read>:
 8000768:	b570      	push	{r4, r5, r6, lr}
 800076a:	460d      	mov	r5, r1
 800076c:	4614      	mov	r4, r2
 800076e:	460e      	mov	r6, r1
 8000770:	1b73      	subs	r3, r6, r5
 8000772:	429c      	cmp	r4, r3
 8000774:	dc01      	bgt.n	800077a <_read+0x12>
 8000776:	4620      	mov	r0, r4
 8000778:	bd70      	pop	{r4, r5, r6, pc}
 800077a:	f3af 8000 	nop.w
 800077e:	f806 0b01 	strb.w	r0, [r6], #1
 8000782:	e7f5      	b.n	8000770 <_read+0x8>

08000784 <_write>:
 8000784:	b570      	push	{r4, r5, r6, lr}
 8000786:	460d      	mov	r5, r1
 8000788:	4614      	mov	r4, r2
 800078a:	460e      	mov	r6, r1
 800078c:	1b73      	subs	r3, r6, r5
 800078e:	429c      	cmp	r4, r3
 8000790:	dc01      	bgt.n	8000796 <_write+0x12>
 8000792:	4620      	mov	r0, r4
 8000794:	bd70      	pop	{r4, r5, r6, pc}
 8000796:	f816 0b01 	ldrb.w	r0, [r6], #1
 800079a:	f3af 8000 	nop.w
 800079e:	e7f5      	b.n	800078c <_write+0x8>

080007a0 <_close>:
 80007a0:	f04f 30ff 	mov.w	r0, #4294967295
 80007a4:	4770      	bx	lr

080007a6 <_fstat>:
 80007a6:	f44f 5300 	mov.w	r3, #8192	@ 0x2000
 80007aa:	604b      	str	r3, [r1, #4]
 80007ac:	2000      	movs	r0, #0
 80007ae:	4770      	bx	lr

080007b0 <_isatty>:
 80007b0:	2001      	movs	r0, #1
 80007b2:	4770      	bx	lr

080007b4 <_lseek>:
 80007b4:	2000      	movs	r0, #0
 80007b6:	4770      	bx	lr

080007b8 <_sbrk>:
 80007b8:	4a0b      	ldr	r2, [pc, #44]	@ (80007e8 <_sbrk+0x30>)
 80007ba:	6811      	ldr	r1, [r2, #0]
 80007bc:	b510      	push	{r4, lr}
 80007be:	4603      	mov	r3, r0
 80007c0:	b909      	cbnz	r1, 80007c6 <_sbrk+0xe>
 80007c2:	490a      	ldr	r1, [pc, #40]	@ (80007ec <_sbrk+0x34>)
 80007c4:	6011      	str	r1, [r2, #0]
 80007c6:	6810      	ldr	r0, [r2, #0]
 80007c8:	4909      	ldr	r1, [pc, #36]	@ (80007f0 <_sbrk+0x38>)
 80007ca:	4c0a      	ldr	r4, [pc, #40]	@ (80007f4 <_sbrk+0x3c>)
 80007cc:	4403      	add	r3, r0
 80007ce:	1b09      	subs	r1, r1, r4
 80007d0:	428b      	cmp	r3, r1
 80007d2:	d906      	bls.n	80007e2 <_sbrk+0x2a>
 80007d4:	f002 fe30 	bl	8003438 <__errno>
 80007d8:	230c      	movs	r3, #12
 80007da:	6003      	str	r3, [r0, #0]
 80007dc:	f04f 30ff 	mov.w	r0, #4294967295
 80007e0:	bd10      	pop	{r4, pc}
 80007e2:	6013      	str	r3, [r2, #0]
 80007e4:	e7fc      	b.n	80007e0 <_sbrk+0x28>
 80007e6:	bf00      	nop
 80007e8:	200000e0 	.word	0x200000e0
 80007ec:	20004b80 	.word	0x20004b80
 80007f0:	20010000 	.word	0x20010000
 80007f4:	00000400 	.word	0x00000400

080007f8 <SystemInit>:
 80007f8:	4a03      	ldr	r2, [pc, #12]	@ (8000808 <SystemInit+0x10>)
 80007fa:	f8d2 3088 	ldr.w	r3, [r2, #136]	@ 0x88
 80007fe:	f443 0370 	orr.w	r3, r3, #15728640	@ 0xf00000
 8000802:	f8c2 3088 	str.w	r3, [r2, #136]	@ 0x88
 8000806:	4770      	bx	lr
 8000808:	e000ed00 	.word	0xe000ed00

0800080c <Reset_Handler>:
 800080c:	f8df d034 	ldr.w	sp, [pc, #52]	@ 8000844 <LoopFillZerobss+0x12>
 8000810:	480d      	ldr	r0, [pc, #52]	@ (8000848 <LoopFillZerobss+0x16>)
 8000812:	490e      	ldr	r1, [pc, #56]	@ (800084c <LoopFillZerobss+0x1a>)
 8000814:	4a0e      	ldr	r2, [pc, #56]	@ (8000850 <LoopFillZerobss+0x1e>)
 8000816:	2300      	movs	r3, #0
 8000818:	e002      	b.n	8000820 <LoopCopyDataInit>

0800081a <CopyDataInit>:
 800081a:	58d4      	ldr	r4, [r2, r3]
 800081c:	50c4      	str	r4, [r0, r3]
 800081e:	3304      	adds	r3, #4

08000820 <LoopCopyDataInit>:
 8000820:	18c4      	adds	r4, r0, r3
 8000822:	428c      	cmp	r4, r1
 8000824:	d3f9      	bcc.n	800081a <CopyDataInit>
 8000826:	4a0b      	ldr	r2, [pc, #44]	@ (8000854 <LoopFillZerobss+0x22>)
 8000828:	4c0b      	ldr	r4, [pc, #44]	@ (8000858 <LoopFillZerobss+0x26>)
 800082a:	2300      	movs	r3, #0
 800082c:	e001      	b.n	8000832 <LoopFillZerobss>

0800082e <FillZerobss>:
 800082e:	6013      	str	r3, [r2, #0]
 8000830:	3204      	adds	r2, #4

08000832 <LoopFillZerobss>:
 8000832:	42a2      	cmp	r2, r4
 8000834:	d3fb      	bcc.n	800082e <FillZerobss>
 8000836:	f7ff ffdf 	bl	80007f8 <SystemInit>
 800083a:	f002 fe03 	bl	8003444 <__libc_init_array>
 800083e:	f7ff ff0f 	bl	8000660 <main>
 8000842:	4770      	bx	lr
 8000844:	20010000 	.word	0x20010000
 8000848:	20000000 	.word	0x20000000
 800084c:	2000006c 	.word	0x2000006c
 8000850:	08003a44 	.word	0x08003a44
 8000854:	2000006c 	.word	0x2000006c
 8000858:	20004b80 	.word	0x20004b80

0800085c <ADC_IRQHandler>:
 800085c:	e7fe      	b.n	800085c <ADC_IRQHandler>
	...

08000860 <HAL_Init>:
 8000860:	b508      	push	{r3, lr}
 8000862:	4b0b      	ldr	r3, [pc, #44]	@ (8000890 <HAL_Init+0x30>)
 8000864:	681a      	ldr	r2, [r3, #0]
 8000866:	f442 7200 	orr.w	r2, r2, #512	@ 0x200
 800086a:	601a      	str	r2, [r3, #0]
 800086c:	681a      	ldr	r2, [r3, #0]
 800086e:	f442 6280 	orr.w	r2, r2, #1024	@ 0x400
 8000872:	601a      	str	r2, [r3, #0]
 8000874:	681a      	ldr	r2, [r3, #0]
 8000876:	f442 7280 	orr.w	r2, r2, #256	@ 0x100
 800087a:	601a      	str	r2, [r3, #0]
 800087c:	2003      	movs	r0, #3
 800087e:	f000 f81b 	bl	80008b8 <HAL_NVIC_SetPriorityGrouping>
 8000882:	200f      	movs	r0, #15
 8000884:	f7ff ff24 	bl	80006d0 <HAL_InitTick>
 8000888:	f7ff ff02 	bl	8000690 <HAL_MspInit>
 800088c:	2000      	movs	r0, #0
 800088e:	bd08      	pop	{r3, pc}
 8000890:	40023c00 	.word	0x40023c00

08000894 <HAL_IncTick>:
 8000894:	4a03      	ldr	r2, [pc, #12]	@ (80008a4 <HAL_IncTick+0x10>)
 8000896:	4b04      	ldr	r3, [pc, #16]	@ (80008a8 <HAL_IncTick+0x14>)
 8000898:	6811      	ldr	r1, [r2, #0]
 800089a:	781b      	ldrb	r3, [r3, #0]
 800089c:	440b      	add	r3, r1
 800089e:	6013      	str	r3, [r2, #0]
 80008a0:	4770      	bx	lr
 80008a2:	bf00      	nop
 80008a4:	200000e4 	.word	0x200000e4
 80008a8:	20000004 	.word	0x20000004

080008ac <HAL_GetTick>:
 80008ac:	4b01      	ldr	r3, [pc, #4]	@ (80008b4 <HAL_GetTick+0x8>)
 80008ae:	6818      	ldr	r0, [r3, #0]
 80008b0:	4770      	bx	lr
 80008b2:	bf00      	nop
 80008b4:	200000e4 	.word	0x200000e4

080008b8 <HAL_NVIC_SetPriorityGrouping>:
 80008b8:	4907      	ldr	r1, [pc, #28]	@ (80008d8 <HAL_NVIC_SetPriorityGrouping+0x20>)
 80008ba:	68ca      	ldr	r2, [r1, #12]
 80008bc:	f422 62e0 	bic.w	r2, r2, #1792	@ 0x700
 80008c0:	0203      	lsls	r3, r0, #8
 80008c2:	0412      	lsls	r2, r2, #16
 80008c4:	f403 63e0 	and.w	r3, r3, #1792	@ 0x700
 80008c8:	0c12      	lsrs	r2, r2, #16
 80008ca:	4313      	orrs	r3, r2
 80008cc:	f043 63bf 	orr.w	r3, r3, #100139008	@ 0x5f80000
 80008d0:	f443 3300 	orr.w	r3, r3, #131072	@ 0x20000
 80008d4:	60cb      	str	r3, [r1, #12]
 80008d6:	4770      	bx	lr
 80008d8:	e000ed00 	.word	0xe000ed00

080008dc <HAL_NVIC_SetPriority>:
 80008dc:	4b16      	ldr	r3, [pc, #88]	@ (8000938 <HAL_NVIC_SetPriority+0x5c>)
 80008de:	b530      	push	{r4, r5, lr}
 80008e0:	68dc      	ldr	r4, [r3, #12]
 80008e2:	f3c4 2402 	ubfx	r4, r4, #8, #3
 80008e6:	f1c4 0307 	rsb	r3, r4, #7
 80008ea:	1d25      	adds	r5, r4, #4
 80008ec:	2b04      	cmp	r3, #4
 80008ee:	bf28      	it	cs
 80008f0:	2304      	movcs	r3, #4
 80008f2:	2d06      	cmp	r5, #6
 80008f4:	f04f 35ff 	mov.w	r5, #4294967295
 80008f8:	bf8c      	ite	hi
 80008fa:	3c03      	subhi	r4, #3
 80008fc:	2400      	movls	r4, #0
 80008fe:	fa05 f303 	lsl.w	r3, r5, r3
 8000902:	ea21 0303 	bic.w	r3, r1, r3
 8000906:	40a5      	lsls	r5, r4
 8000908:	ea22 0205 	bic.w	r2, r2, r5
 800090c:	40a3      	lsls	r3, r4
 800090e:	2800      	cmp	r0, #0
 8000910:	ea43 0302 	orr.w	r3, r3, r2
 8000914:	bfac      	ite	ge
 8000916:	f100 4060 	addge.w	r0, r0, #3758096384	@ 0xe0000000
 800091a:	4a08      	ldrlt	r2, [pc, #32]	@ (800093c <HAL_NVIC_SetPriority+0x60>)
 800091c:	ea4f 1303 	mov.w	r3, r3, lsl #4
 8000920:	bfb8      	it	lt
 8000922:	f000 000f 	andlt.w	r0, r0, #15
 8000926:	b2db      	uxtb	r3, r3
 8000928:	bfaa      	itet	ge
 800092a:	f500 4061 	addge.w	r0, r0, #57600	@ 0xe100
 800092e:	5413      	strblt	r3, [r2, r0]
 8000930:	f880 3300 	strbge.w	r3, [r0, #768]	@ 0x300
 8000934:	bd30      	pop	{r4, r5, pc}
 8000936:	bf00      	nop
 8000938:	e000ed00 	.word	0xe000ed00
 800093c:	e000ed14 	.word	0xe000ed14

08000940 <HAL_NVIC_EnableIRQ>:
 8000940:	2800      	cmp	r0, #0
 8000942:	db07      	blt.n	8000954 <HAL_NVIC_EnableIRQ+0x14>
 8000944:	0941      	lsrs	r1, r0, #5
 8000946:	4a04      	ldr	r2, [pc, #16]	@ (8000958 <HAL_NVIC_EnableIRQ+0x18>)
 8000948:	f000 001f 	and.w	r0, r0, #31
 800094c:	2301      	movs	r3, #1
 800094e:	4083      	lsls	r3, r0
 8000950:	f842 3021 	str.w	r3, [r2, r1, lsl #2]
 8000954:	4770      	bx	lr
 8000956:	bf00      	nop
 8000958:	e000e100 	.word	0xe000e100

0800095c <HAL_GPIO_Init>:
 800095c:	e92d 4ff7 	stmdb	sp!, {r0, r1, r2, r4, r5, r6, r7, r8, r9, sl, fp, lr}
 8000960:	f8df 9180 	ldr.w	r9, [pc, #384]	@ 8000ae4 <HAL_GPIO_Init+0x188>
 8000964:	4a5d      	ldr	r2, [pc, #372]	@ (8000adc <HAL_GPIO_Init+0x180>)
 8000966:	2300      	movs	r3, #0
 8000968:	680d      	ldr	r5, [r1, #0]
 800096a:	2401      	movs	r4, #1
 800096c:	409c      	lsls	r4, r3
 800096e:	ea04 0605 	and.w	r6, r4, r5
 8000972:	43ac      	bics	r4, r5
 8000974:	f040 80a3 	bne.w	8000abe <HAL_GPIO_Init+0x162>
 8000978:	684d      	ldr	r5, [r1, #4]
 800097a:	2703      	movs	r7, #3
 800097c:	f005 0403 	and.w	r4, r5, #3
 8000980:	ea4f 0843 	mov.w	r8, r3, lsl #1
 8000984:	fa07 fc08 	lsl.w	ip, r7, r8
 8000988:	1e67      	subs	r7, r4, #1
 800098a:	2f01      	cmp	r7, #1
 800098c:	ea6f 0c0c 	mvn.w	ip, ip
 8000990:	d834      	bhi.n	80009fc <HAL_GPIO_Init+0xa0>
 8000992:	6887      	ldr	r7, [r0, #8]
 8000994:	ea07 0e0c 	and.w	lr, r7, ip
 8000998:	68cf      	ldr	r7, [r1, #12]
 800099a:	fa07 f708 	lsl.w	r7, r7, r8
 800099e:	ea47 070e 	orr.w	r7, r7, lr
 80009a2:	6087      	str	r7, [r0, #8]
 80009a4:	6847      	ldr	r7, [r0, #4]
 80009a6:	ea27 0e06 	bic.w	lr, r7, r6
 80009aa:	f3c5 1700 	ubfx	r7, r5, #4, #1
 80009ae:	409f      	lsls	r7, r3
 80009b0:	ea47 070e 	orr.w	r7, r7, lr
 80009b4:	6047      	str	r7, [r0, #4]
 80009b6:	68c7      	ldr	r7, [r0, #12]
 80009b8:	ea07 0e0c 	and.w	lr, r7, ip
 80009bc:	688f      	ldr	r7, [r1, #8]
 80009be:	fa07 f708 	lsl.w	r7, r7, r8
 80009c2:	ea47 070e 	orr.w	r7, r7, lr
 80009c6:	2c02      	cmp	r4, #2
 80009c8:	60c7      	str	r7, [r0, #12]
 80009ca:	d119      	bne.n	8000a00 <HAL_GPIO_Init+0xa4>
 80009cc:	ea4f 0ad3 	mov.w	sl, r3, lsr #3
 80009d0:	eb00 0a8a 	add.w	sl, r0, sl, lsl #2
 80009d4:	f003 0b07 	and.w	fp, r3, #7
 80009d8:	f8da 7020 	ldr.w	r7, [sl, #32]
 80009dc:	ea4f 0b8b 	mov.w	fp, fp, lsl #2
 80009e0:	f04f 0e0f 	mov.w	lr, #15
 80009e4:	fa0e fe0b 	lsl.w	lr, lr, fp
 80009e8:	ea27 0e0e 	bic.w	lr, r7, lr
 80009ec:	690f      	ldr	r7, [r1, #16]
 80009ee:	fa07 f70b 	lsl.w	r7, r7, fp
 80009f2:	ea47 070e 	orr.w	r7, r7, lr
 80009f6:	f8ca 7020 	str.w	r7, [sl, #32]
 80009fa:	e001      	b.n	8000a00 <HAL_GPIO_Init+0xa4>
 80009fc:	2c03      	cmp	r4, #3
 80009fe:	d1da      	bne.n	80009b6 <HAL_GPIO_Init+0x5a>
 8000a00:	6807      	ldr	r7, [r0, #0]
 8000a02:	fa04 f408 	lsl.w	r4, r4, r8
 8000a06:	ea07 070c 	and.w	r7, r7, ip
 8000a0a:	433c      	orrs	r4, r7
 8000a0c:	f415 3f40 	tst.w	r5, #196608	@ 0x30000
 8000a10:	6004      	str	r4, [r0, #0]
 8000a12:	d054      	beq.n	8000abe <HAL_GPIO_Init+0x162>
 8000a14:	2400      	movs	r4, #0
 8000a16:	9401      	str	r4, [sp, #4]
 8000a18:	f8d9 4044 	ldr.w	r4, [r9, #68]	@ 0x44
 8000a1c:	f444 4480 	orr.w	r4, r4, #16384	@ 0x4000
 8000a20:	f8c9 4044 	str.w	r4, [r9, #68]	@ 0x44
 8000a24:	f8d9 4044 	ldr.w	r4, [r9, #68]	@ 0x44
 8000a28:	f023 0703 	bic.w	r7, r3, #3
 8000a2c:	f107 4780 	add.w	r7, r7, #1073741824	@ 0x40000000
 8000a30:	f404 4480 	and.w	r4, r4, #16384	@ 0x4000
 8000a34:	f507 379c 	add.w	r7, r7, #79872	@ 0x13800
 8000a38:	9401      	str	r4, [sp, #4]
 8000a3a:	f003 0c03 	and.w	ip, r3, #3
 8000a3e:	9c01      	ldr	r4, [sp, #4]
 8000a40:	f8d7 e008 	ldr.w	lr, [r7, #8]
 8000a44:	ea4f 0c8c 	mov.w	ip, ip, lsl #2
 8000a48:	240f      	movs	r4, #15
 8000a4a:	fa04 f40c 	lsl.w	r4, r4, ip
 8000a4e:	ea2e 0e04 	bic.w	lr, lr, r4
 8000a52:	4c23      	ldr	r4, [pc, #140]	@ (8000ae0 <HAL_GPIO_Init+0x184>)
 8000a54:	42a0      	cmp	r0, r4
 8000a56:	d039      	beq.n	8000acc <HAL_GPIO_Init+0x170>
 8000a58:	f504 6480 	add.w	r4, r4, #1024	@ 0x400
 8000a5c:	42a0      	cmp	r0, r4
 8000a5e:	d037      	beq.n	8000ad0 <HAL_GPIO_Init+0x174>
 8000a60:	f504 6480 	add.w	r4, r4, #1024	@ 0x400
 8000a64:	42a0      	cmp	r0, r4
 8000a66:	d035      	beq.n	8000ad4 <HAL_GPIO_Init+0x178>
 8000a68:	f504 6480 	add.w	r4, r4, #1024	@ 0x400
 8000a6c:	42a0      	cmp	r0, r4
 8000a6e:	d033      	beq.n	8000ad8 <HAL_GPIO_Init+0x17c>
 8000a70:	f504 6480 	add.w	r4, r4, #1024	@ 0x400
 8000a74:	42a0      	cmp	r0, r4
 8000a76:	bf14      	ite	ne
 8000a78:	2407      	movne	r4, #7
 8000a7a:	2404      	moveq	r4, #4
 8000a7c:	fa04 f40c 	lsl.w	r4, r4, ip
 8000a80:	ea44 040e 	orr.w	r4, r4, lr
 8000a84:	60bc      	str	r4, [r7, #8]
 8000a86:	6814      	ldr	r4, [r2, #0]
 8000a88:	43f7      	mvns	r7, r6
 8000a8a:	f415 3f80 	tst.w	r5, #65536	@ 0x10000
 8000a8e:	bf0c      	ite	eq
 8000a90:	403c      	andeq	r4, r7
 8000a92:	4334      	orrne	r4, r6
 8000a94:	6014      	str	r4, [r2, #0]
 8000a96:	6854      	ldr	r4, [r2, #4]
 8000a98:	f415 3f00 	tst.w	r5, #131072	@ 0x20000
 8000a9c:	bf0c      	ite	eq
 8000a9e:	403c      	andeq	r4, r7
 8000aa0:	4334      	orrne	r4, r6
 8000aa2:	6054      	str	r4, [r2, #4]
 8000aa4:	6894      	ldr	r4, [r2, #8]
 8000aa6:	f415 1f80 	tst.w	r5, #1048576	@ 0x100000
 8000aaa:	bf0c      	ite	eq
 8000aac:	403c      	andeq	r4, r7
 8000aae:	4334      	orrne	r4, r6
 8000ab0:	6094      	str	r4, [r2, #8]
 8000ab2:	68d4      	ldr	r4, [r2, #12]
 8000ab4:	02ad      	lsls	r5, r5, #10
 8000ab6:	bf54      	ite	pl
 8000ab8:	403c      	andpl	r4, r7
 8000aba:	4334      	orrmi	r4, r6
 8000abc:	60d4      	str	r4, [r2, #12]
 8000abe:	3301      	adds	r3, #1
 8000ac0:	2b10      	cmp	r3, #16
 8000ac2:	f47f af51 	bne.w	8000968 <HAL_GPIO_Init+0xc>
 8000ac6:	b003      	add	sp, #12
 8000ac8:	e8bd 8ff0 	ldmia.w	sp!, {r4, r5, r6, r7, r8, r9, sl, fp, pc}
 8000acc:	2400      	movs	r4, #0
 8000ace:	e7d5      	b.n	8000a7c <HAL_GPIO_Init+0x120>
 8000ad0:	2401      	movs	r4, #1
 8000ad2:	e7d3      	b.n	8000a7c <HAL_GPIO_Init+0x120>
 8000ad4:	2402      	movs	r4, #2
 8000ad6:	e7d1      	b.n	8000a7c <HAL_GPIO_Init+0x120>
 8000ad8:	2403      	movs	r4, #3
 8000ada:	e7cf      	b.n	8000a7c <HAL_GPIO_Init+0x120>
 8000adc:	40013c00 	.word	0x40013c00
 8000ae0:	40020000 	.word	0x40020000
 8000ae4:	40023800 	.word	0x40023800

08000ae8 <HAL_GPIO_EXTI_IRQHandler>:
 8000ae8:	4a03      	ldr	r2, [pc, #12]	@ (8000af8 <HAL_GPIO_EXTI_IRQHandler+0x10>)
 8000aea:	6951      	ldr	r1, [r2, #20]
 8000aec:	4201      	tst	r1, r0
 8000aee:	d002      	beq.n	8000af6 <HAL_GPIO_EXTI_IRQHandler+0xe>
 8000af0:	6150      	str	r0, [r2, #20]
 8000af2:	f7ff bd61 	b.w	80005b8 <HAL_GPIO_EXTI_Callback>
 8000af6:	4770      	bx	lr
 8000af8:	40013c00 	.word	0x40013c00

08000afc <HAL_RCC_OscConfig>:
 8000afc:	e92d 41f3 	stmdb	sp!, {r0, r1, r4, r5, r6, r7, r8, lr}
 8000b00:	4604      	mov	r4, r0
 8000b02:	b340      	cbz	r0, 8000b56 <HAL_RCC_OscConfig+0x5a>
 8000b04:	6803      	ldr	r3, [r0, #0]
 8000b06:	07de      	lsls	r6, r3, #31
 8000b08:	d410      	bmi.n	8000b2c <HAL_RCC_OscConfig+0x30>
 8000b0a:	6823      	ldr	r3, [r4, #0]
 8000b0c:	079d      	lsls	r5, r3, #30
 8000b0e:	d45b      	bmi.n	8000bc8 <HAL_RCC_OscConfig+0xcc>
 8000b10:	6823      	ldr	r3, [r4, #0]
 8000b12:	0719      	lsls	r1, r3, #28
 8000b14:	f100 809d 	bmi.w	8000c52 <HAL_RCC_OscConfig+0x156>
 8000b18:	6823      	ldr	r3, [r4, #0]
 8000b1a:	075a      	lsls	r2, r3, #29
 8000b1c:	f100 80bd 	bmi.w	8000c9a <HAL_RCC_OscConfig+0x19e>
 8000b20:	69a3      	ldr	r3, [r4, #24]
 8000b22:	2b00      	cmp	r3, #0
 8000b24:	f040 8124 	bne.w	8000d70 <HAL_RCC_OscConfig+0x274>
 8000b28:	2000      	movs	r0, #0
 8000b2a:	e02c      	b.n	8000b86 <HAL_RCC_OscConfig+0x8a>
 8000b2c:	4b8d      	ldr	r3, [pc, #564]	@ (8000d64 <HAL_RCC_OscConfig+0x268>)
 8000b2e:	689a      	ldr	r2, [r3, #8]
 8000b30:	f002 020c 	and.w	r2, r2, #12
 8000b34:	2a04      	cmp	r2, #4
 8000b36:	d007      	beq.n	8000b48 <HAL_RCC_OscConfig+0x4c>
 8000b38:	689a      	ldr	r2, [r3, #8]
 8000b3a:	f002 020c 	and.w	r2, r2, #12
 8000b3e:	2a08      	cmp	r2, #8
 8000b40:	d10b      	bne.n	8000b5a <HAL_RCC_OscConfig+0x5e>
 8000b42:	685b      	ldr	r3, [r3, #4]
 8000b44:	0259      	lsls	r1, r3, #9
 8000b46:	d508      	bpl.n	8000b5a <HAL_RCC_OscConfig+0x5e>
 8000b48:	4b86      	ldr	r3, [pc, #536]	@ (8000d64 <HAL_RCC_OscConfig+0x268>)
 8000b4a:	681b      	ldr	r3, [r3, #0]
 8000b4c:	039a      	lsls	r2, r3, #14
 8000b4e:	d5dc      	bpl.n	8000b0a <HAL_RCC_OscConfig+0xe>
 8000b50:	6863      	ldr	r3, [r4, #4]
 8000b52:	2b00      	cmp	r3, #0
 8000b54:	d1d9      	bne.n	8000b0a <HAL_RCC_OscConfig+0xe>
 8000b56:	2001      	movs	r0, #1
 8000b58:	e015      	b.n	8000b86 <HAL_RCC_OscConfig+0x8a>
 8000b5a:	6863      	ldr	r3, [r4, #4]
 8000b5c:	4d81      	ldr	r5, [pc, #516]	@ (8000d64 <HAL_RCC_OscConfig+0x268>)
 8000b5e:	f5b3 3f80 	cmp.w	r3, #65536	@ 0x10000
 8000b62:	d113      	bne.n	8000b8c <HAL_RCC_OscConfig+0x90>
 8000b64:	682b      	ldr	r3, [r5, #0]
 8000b66:	f443 3380 	orr.w	r3, r3, #65536	@ 0x10000
 8000b6a:	602b      	str	r3, [r5, #0]
 8000b6c:	f7ff fe9e 	bl	80008ac <HAL_GetTick>
 8000b70:	4e7c      	ldr	r6, [pc, #496]	@ (8000d64 <HAL_RCC_OscConfig+0x268>)
 8000b72:	4605      	mov	r5, r0
 8000b74:	6833      	ldr	r3, [r6, #0]
 8000b76:	039b      	lsls	r3, r3, #14
 8000b78:	d4c7      	bmi.n	8000b0a <HAL_RCC_OscConfig+0xe>
 8000b7a:	f7ff fe97 	bl	80008ac <HAL_GetTick>
 8000b7e:	1b40      	subs	r0, r0, r5
 8000b80:	2864      	cmp	r0, #100	@ 0x64
 8000b82:	d9f7      	bls.n	8000b74 <HAL_RCC_OscConfig+0x78>
 8000b84:	2003      	movs	r0, #3
 8000b86:	b002      	add	sp, #8
 8000b88:	e8bd 81f0 	ldmia.w	sp!, {r4, r5, r6, r7, r8, pc}
 8000b8c:	f5b3 2fa0 	cmp.w	r3, #327680	@ 0x50000
 8000b90:	d104      	bne.n	8000b9c <HAL_RCC_OscConfig+0xa0>
 8000b92:	682b      	ldr	r3, [r5, #0]
 8000b94:	f443 2380 	orr.w	r3, r3, #262144	@ 0x40000
 8000b98:	602b      	str	r3, [r5, #0]
 8000b9a:	e7e3      	b.n	8000b64 <HAL_RCC_OscConfig+0x68>
 8000b9c:	682a      	ldr	r2, [r5, #0]
 8000b9e:	f422 3280 	bic.w	r2, r2, #65536	@ 0x10000
 8000ba2:	602a      	str	r2, [r5, #0]
 8000ba4:	682a      	ldr	r2, [r5, #0]
 8000ba6:	f422 2280 	bic.w	r2, r2, #262144	@ 0x40000
 8000baa:	602a      	str	r2, [r5, #0]
 8000bac:	2b00      	cmp	r3, #0
 8000bae:	d1dd      	bne.n	8000b6c <HAL_RCC_OscConfig+0x70>
 8000bb0:	f7ff fe7c 	bl	80008ac <HAL_GetTick>
 8000bb4:	4606      	mov	r6, r0
 8000bb6:	682b      	ldr	r3, [r5, #0]
 8000bb8:	039f      	lsls	r7, r3, #14
 8000bba:	d5a6      	bpl.n	8000b0a <HAL_RCC_OscConfig+0xe>
 8000bbc:	f7ff fe76 	bl	80008ac <HAL_GetTick>
 8000bc0:	1b80      	subs	r0, r0, r6
 8000bc2:	2864      	cmp	r0, #100	@ 0x64
 8000bc4:	d9f7      	bls.n	8000bb6 <HAL_RCC_OscConfig+0xba>
 8000bc6:	e7dd      	b.n	8000b84 <HAL_RCC_OscConfig+0x88>
 8000bc8:	4b66      	ldr	r3, [pc, #408]	@ (8000d64 <HAL_RCC_OscConfig+0x268>)
 8000bca:	689a      	ldr	r2, [r3, #8]
 8000bcc:	f012 0f0c 	tst.w	r2, #12
 8000bd0:	d007      	beq.n	8000be2 <HAL_RCC_OscConfig+0xe6>
 8000bd2:	689a      	ldr	r2, [r3, #8]
 8000bd4:	f002 020c 	and.w	r2, r2, #12
 8000bd8:	2a08      	cmp	r2, #8
 8000bda:	d111      	bne.n	8000c00 <HAL_RCC_OscConfig+0x104>
 8000bdc:	685b      	ldr	r3, [r3, #4]
 8000bde:	025d      	lsls	r5, r3, #9
 8000be0:	d40e      	bmi.n	8000c00 <HAL_RCC_OscConfig+0x104>
 8000be2:	4a60      	ldr	r2, [pc, #384]	@ (8000d64 <HAL_RCC_OscConfig+0x268>)
 8000be4:	6813      	ldr	r3, [r2, #0]
 8000be6:	0799      	lsls	r1, r3, #30
 8000be8:	d502      	bpl.n	8000bf0 <HAL_RCC_OscConfig+0xf4>
 8000bea:	68e3      	ldr	r3, [r4, #12]
 8000bec:	2b01      	cmp	r3, #1
 8000bee:	d1b2      	bne.n	8000b56 <HAL_RCC_OscConfig+0x5a>
 8000bf0:	6813      	ldr	r3, [r2, #0]
 8000bf2:	6921      	ldr	r1, [r4, #16]
 8000bf4:	f023 03f8 	bic.w	r3, r3, #248	@ 0xf8
 8000bf8:	ea43 03c1 	orr.w	r3, r3, r1, lsl #3
 8000bfc:	6013      	str	r3, [r2, #0]
 8000bfe:	e787      	b.n	8000b10 <HAL_RCC_OscConfig+0x14>
 8000c00:	68e2      	ldr	r2, [r4, #12]
 8000c02:	4b59      	ldr	r3, [pc, #356]	@ (8000d68 <HAL_RCC_OscConfig+0x26c>)
 8000c04:	b1b2      	cbz	r2, 8000c34 <HAL_RCC_OscConfig+0x138>
 8000c06:	2201      	movs	r2, #1
 8000c08:	601a      	str	r2, [r3, #0]
 8000c0a:	f7ff fe4f 	bl	80008ac <HAL_GetTick>
 8000c0e:	4d55      	ldr	r5, [pc, #340]	@ (8000d64 <HAL_RCC_OscConfig+0x268>)
 8000c10:	4606      	mov	r6, r0
 8000c12:	682b      	ldr	r3, [r5, #0]
 8000c14:	079b      	lsls	r3, r3, #30
 8000c16:	d507      	bpl.n	8000c28 <HAL_RCC_OscConfig+0x12c>
 8000c18:	682b      	ldr	r3, [r5, #0]
 8000c1a:	6922      	ldr	r2, [r4, #16]
 8000c1c:	f023 03f8 	bic.w	r3, r3, #248	@ 0xf8
 8000c20:	ea43 03c2 	orr.w	r3, r3, r2, lsl #3
 8000c24:	602b      	str	r3, [r5, #0]
 8000c26:	e773      	b.n	8000b10 <HAL_RCC_OscConfig+0x14>
 8000c28:	f7ff fe40 	bl	80008ac <HAL_GetTick>
 8000c2c:	1b80      	subs	r0, r0, r6
 8000c2e:	2802      	cmp	r0, #2
 8000c30:	d9ef      	bls.n	8000c12 <HAL_RCC_OscConfig+0x116>
 8000c32:	e7a7      	b.n	8000b84 <HAL_RCC_OscConfig+0x88>
 8000c34:	601a      	str	r2, [r3, #0]
 8000c36:	f7ff fe39 	bl	80008ac <HAL_GetTick>
 8000c3a:	4e4a      	ldr	r6, [pc, #296]	@ (8000d64 <HAL_RCC_OscConfig+0x268>)
 8000c3c:	4605      	mov	r5, r0
 8000c3e:	6833      	ldr	r3, [r6, #0]
 8000c40:	079f      	lsls	r7, r3, #30
 8000c42:	f57f af65 	bpl.w	8000b10 <HAL_RCC_OscConfig+0x14>
 8000c46:	f7ff fe31 	bl	80008ac <HAL_GetTick>
 8000c4a:	1b40      	subs	r0, r0, r5
 8000c4c:	2802      	cmp	r0, #2
 8000c4e:	d9f6      	bls.n	8000c3e <HAL_RCC_OscConfig+0x142>
 8000c50:	e798      	b.n	8000b84 <HAL_RCC_OscConfig+0x88>
 8000c52:	6962      	ldr	r2, [r4, #20]
 8000c54:	4b44      	ldr	r3, [pc, #272]	@ (8000d68 <HAL_RCC_OscConfig+0x26c>)
 8000c56:	b182      	cbz	r2, 8000c7a <HAL_RCC_OscConfig+0x17e>
 8000c58:	2201      	movs	r2, #1
 8000c5a:	f8c3 2e80 	str.w	r2, [r3, #3712]	@ 0xe80
 8000c5e:	f7ff fe25 	bl	80008ac <HAL_GetTick>
 8000c62:	4e40      	ldr	r6, [pc, #256]	@ (8000d64 <HAL_RCC_OscConfig+0x268>)
 8000c64:	4605      	mov	r5, r0
 8000c66:	6f73      	ldr	r3, [r6, #116]	@ 0x74
 8000c68:	079b      	lsls	r3, r3, #30
 8000c6a:	f53f af55 	bmi.w	8000b18 <HAL_RCC_OscConfig+0x1c>
 8000c6e:	f7ff fe1d 	bl	80008ac <HAL_GetTick>
 8000c72:	1b40      	subs	r0, r0, r5
 8000c74:	2802      	cmp	r0, #2
 8000c76:	d9f6      	bls.n	8000c66 <HAL_RCC_OscConfig+0x16a>
 8000c78:	e784      	b.n	8000b84 <HAL_RCC_OscConfig+0x88>
 8000c7a:	f8c3 2e80 	str.w	r2, [r3, #3712]	@ 0xe80
 8000c7e:	f7ff fe15 	bl	80008ac <HAL_GetTick>
 8000c82:	4e38      	ldr	r6, [pc, #224]	@ (8000d64 <HAL_RCC_OscConfig+0x268>)
 8000c84:	4605      	mov	r5, r0
 8000c86:	6f73      	ldr	r3, [r6, #116]	@ 0x74
 8000c88:	079f      	lsls	r7, r3, #30
 8000c8a:	f57f af45 	bpl.w	8000b18 <HAL_RCC_OscConfig+0x1c>
 8000c8e:	f7ff fe0d 	bl	80008ac <HAL_GetTick>
 8000c92:	1b40      	subs	r0, r0, r5
 8000c94:	2802      	cmp	r0, #2
 8000c96:	d9f6      	bls.n	8000c86 <HAL_RCC_OscConfig+0x18a>
 8000c98:	e774      	b.n	8000b84 <HAL_RCC_OscConfig+0x88>
 8000c9a:	4b32      	ldr	r3, [pc, #200]	@ (8000d64 <HAL_RCC_OscConfig+0x268>)
 8000c9c:	6c1a      	ldr	r2, [r3, #64]	@ 0x40
 8000c9e:	f012 5280 	ands.w	r2, r2, #268435456	@ 0x10000000
 8000ca2:	d128      	bne.n	8000cf6 <HAL_RCC_OscConfig+0x1fa>
 8000ca4:	9201      	str	r2, [sp, #4]
 8000ca6:	6c1a      	ldr	r2, [r3, #64]	@ 0x40
 8000ca8:	f042 5280 	orr.w	r2, r2, #268435456	@ 0x10000000
 8000cac:	641a      	str	r2, [r3, #64]	@ 0x40
 8000cae:	6c1b      	ldr	r3, [r3, #64]	@ 0x40
 8000cb0:	f003 5380 	and.w	r3, r3, #268435456	@ 0x10000000
 8000cb4:	9301      	str	r3, [sp, #4]
 8000cb6:	9b01      	ldr	r3, [sp, #4]
 8000cb8:	2701      	movs	r7, #1
 8000cba:	4d2c      	ldr	r5, [pc, #176]	@ (8000d6c <HAL_RCC_OscConfig+0x270>)
 8000cbc:	682b      	ldr	r3, [r5, #0]
 8000cbe:	05d8      	lsls	r0, r3, #23
 8000cc0:	d51b      	bpl.n	8000cfa <HAL_RCC_OscConfig+0x1fe>
 8000cc2:	68a3      	ldr	r3, [r4, #8]
 8000cc4:	4d27      	ldr	r5, [pc, #156]	@ (8000d64 <HAL_RCC_OscConfig+0x268>)
 8000cc6:	2b01      	cmp	r3, #1
 8000cc8:	d127      	bne.n	8000d1a <HAL_RCC_OscConfig+0x21e>
 8000cca:	6f2b      	ldr	r3, [r5, #112]	@ 0x70
 8000ccc:	f043 0301 	orr.w	r3, r3, #1
 8000cd0:	672b      	str	r3, [r5, #112]	@ 0x70
 8000cd2:	f7ff fdeb 	bl	80008ac <HAL_GetTick>
 8000cd6:	4e23      	ldr	r6, [pc, #140]	@ (8000d64 <HAL_RCC_OscConfig+0x268>)
 8000cd8:	4605      	mov	r5, r0
 8000cda:	f241 3888 	movw	r8, #5000	@ 0x1388
 8000cde:	6f33      	ldr	r3, [r6, #112]	@ 0x70
 8000ce0:	079a      	lsls	r2, r3, #30
 8000ce2:	d539      	bpl.n	8000d58 <HAL_RCC_OscConfig+0x25c>
 8000ce4:	2f00      	cmp	r7, #0
 8000ce6:	f43f af1b 	beq.w	8000b20 <HAL_RCC_OscConfig+0x24>
 8000cea:	4a1e      	ldr	r2, [pc, #120]	@ (8000d64 <HAL_RCC_OscConfig+0x268>)
 8000cec:	6c13      	ldr	r3, [r2, #64]	@ 0x40
 8000cee:	f023 5380 	bic.w	r3, r3, #268435456	@ 0x10000000
 8000cf2:	6413      	str	r3, [r2, #64]	@ 0x40
 8000cf4:	e714      	b.n	8000b20 <HAL_RCC_OscConfig+0x24>
 8000cf6:	2700      	movs	r7, #0
 8000cf8:	e7df      	b.n	8000cba <HAL_RCC_OscConfig+0x1be>
 8000cfa:	682b      	ldr	r3, [r5, #0]
 8000cfc:	f443 7380 	orr.w	r3, r3, #256	@ 0x100
 8000d00:	602b      	str	r3, [r5, #0]
 8000d02:	f7ff fdd3 	bl	80008ac <HAL_GetTick>
 8000d06:	4606      	mov	r6, r0
 8000d08:	682b      	ldr	r3, [r5, #0]
 8000d0a:	05d9      	lsls	r1, r3, #23
 8000d0c:	d4d9      	bmi.n	8000cc2 <HAL_RCC_OscConfig+0x1c6>
 8000d0e:	f7ff fdcd 	bl	80008ac <HAL_GetTick>
 8000d12:	1b80      	subs	r0, r0, r6
 8000d14:	2802      	cmp	r0, #2
 8000d16:	d9f7      	bls.n	8000d08 <HAL_RCC_OscConfig+0x20c>
 8000d18:	e734      	b.n	8000b84 <HAL_RCC_OscConfig+0x88>
 8000d1a:	2b05      	cmp	r3, #5
 8000d1c:	d104      	bne.n	8000d28 <HAL_RCC_OscConfig+0x22c>
 8000d1e:	6f2b      	ldr	r3, [r5, #112]	@ 0x70
 8000d20:	f043 0304 	orr.w	r3, r3, #4
 8000d24:	672b      	str	r3, [r5, #112]	@ 0x70
 8000d26:	e7d0      	b.n	8000cca <HAL_RCC_OscConfig+0x1ce>
 8000d28:	6f2a      	ldr	r2, [r5, #112]	@ 0x70
 8000d2a:	f022 0201 	bic.w	r2, r2, #1
 8000d2e:	672a      	str	r2, [r5, #112]	@ 0x70
 8000d30:	6f2a      	ldr	r2, [r5, #112]	@ 0x70
 8000d32:	f022 0204 	bic.w	r2, r2, #4
 8000d36:	672a      	str	r2, [r5, #112]	@ 0x70
 8000d38:	2b00      	cmp	r3, #0
 8000d3a:	d1ca      	bne.n	8000cd2 <HAL_RCC_OscConfig+0x1d6>
 8000d3c:	f7ff fdb6 	bl	80008ac <HAL_GetTick>
 8000d40:	f241 3888 	movw	r8, #5000	@ 0x1388
 8000d44:	4606      	mov	r6, r0
 8000d46:	6f2b      	ldr	r3, [r5, #112]	@ 0x70
 8000d48:	079b      	lsls	r3, r3, #30
 8000d4a:	d5cb      	bpl.n	8000ce4 <HAL_RCC_OscConfig+0x1e8>
 8000d4c:	f7ff fdae 	bl	80008ac <HAL_GetTick>
 8000d50:	1b80      	subs	r0, r0, r6
 8000d52:	4540      	cmp	r0, r8
 8000d54:	d9f7      	bls.n	8000d46 <HAL_RCC_OscConfig+0x24a>
 8000d56:	e715      	b.n	8000b84 <HAL_RCC_OscConfig+0x88>
 8000d58:	f7ff fda8 	bl	80008ac <HAL_GetTick>
 8000d5c:	1b40      	subs	r0, r0, r5
 8000d5e:	4540      	cmp	r0, r8
 8000d60:	d9bd      	bls.n	8000cde <HAL_RCC_OscConfig+0x1e2>
 8000d62:	e70f      	b.n	8000b84 <HAL_RCC_OscConfig+0x88>
 8000d64:	40023800 	.word	0x40023800
 8000d68:	42470000 	.word	0x42470000
 8000d6c:	40007000 	.word	0x40007000
 8000d70:	4d37      	ldr	r5, [pc, #220]	@ (8000e50 <HAL_RCC_OscConfig+0x354>)
 8000d72:	68aa      	ldr	r2, [r5, #8]
 8000d74:	f002 020c 	and.w	r2, r2, #12
 8000d78:	2a08      	cmp	r2, #8
 8000d7a:	d03e      	beq.n	8000dfa <HAL_RCC_OscConfig+0x2fe>
 8000d7c:	2b02      	cmp	r3, #2
 8000d7e:	4b35      	ldr	r3, [pc, #212]	@ (8000e54 <HAL_RCC_OscConfig+0x358>)
 8000d80:	f04f 0200 	mov.w	r2, #0
 8000d84:	661a      	str	r2, [r3, #96]	@ 0x60
 8000d86:	d12b      	bne.n	8000de0 <HAL_RCC_OscConfig+0x2e4>
 8000d88:	f7ff fd90 	bl	80008ac <HAL_GetTick>
 8000d8c:	4606      	mov	r6, r0
 8000d8e:	682b      	ldr	r3, [r5, #0]
 8000d90:	0199      	lsls	r1, r3, #6
 8000d92:	d41f      	bmi.n	8000dd4 <HAL_RCC_OscConfig+0x2d8>
 8000d94:	e9d4 3207 	ldrd	r3, r2, [r4, #28]
 8000d98:	4313      	orrs	r3, r2
 8000d9a:	6a62      	ldr	r2, [r4, #36]	@ 0x24
 8000d9c:	ea43 1382 	orr.w	r3, r3, r2, lsl #6
 8000da0:	6ae2      	ldr	r2, [r4, #44]	@ 0x2c
 8000da2:	ea43 6302 	orr.w	r3, r3, r2, lsl #24
 8000da6:	6aa2      	ldr	r2, [r4, #40]	@ 0x28
 8000da8:	0852      	lsrs	r2, r2, #1
 8000daa:	3a01      	subs	r2, #1
 8000dac:	ea43 4302 	orr.w	r3, r3, r2, lsl #16
 8000db0:	606b      	str	r3, [r5, #4]
 8000db2:	4b28      	ldr	r3, [pc, #160]	@ (8000e54 <HAL_RCC_OscConfig+0x358>)
 8000db4:	4d26      	ldr	r5, [pc, #152]	@ (8000e50 <HAL_RCC_OscConfig+0x354>)
 8000db6:	2201      	movs	r2, #1
 8000db8:	661a      	str	r2, [r3, #96]	@ 0x60
 8000dba:	f7ff fd77 	bl	80008ac <HAL_GetTick>
 8000dbe:	4604      	mov	r4, r0
 8000dc0:	682b      	ldr	r3, [r5, #0]
 8000dc2:	019a      	lsls	r2, r3, #6
 8000dc4:	f53f aeb0 	bmi.w	8000b28 <HAL_RCC_OscConfig+0x2c>
 8000dc8:	f7ff fd70 	bl	80008ac <HAL_GetTick>
 8000dcc:	1b00      	subs	r0, r0, r4
 8000dce:	2802      	cmp	r0, #2
 8000dd0:	d9f6      	bls.n	8000dc0 <HAL_RCC_OscConfig+0x2c4>
 8000dd2:	e6d7      	b.n	8000b84 <HAL_RCC_OscConfig+0x88>
 8000dd4:	f7ff fd6a 	bl	80008ac <HAL_GetTick>
 8000dd8:	1b80      	subs	r0, r0, r6
 8000dda:	2802      	cmp	r0, #2
 8000ddc:	d9d7      	bls.n	8000d8e <HAL_RCC_OscConfig+0x292>
 8000dde:	e6d1      	b.n	8000b84 <HAL_RCC_OscConfig+0x88>
 8000de0:	f7ff fd64 	bl	80008ac <HAL_GetTick>
 8000de4:	4604      	mov	r4, r0
 8000de6:	682b      	ldr	r3, [r5, #0]
 8000de8:	019b      	lsls	r3, r3, #6
 8000dea:	f57f ae9d 	bpl.w	8000b28 <HAL_RCC_OscConfig+0x2c>
 8000dee:	f7ff fd5d 	bl	80008ac <HAL_GetTick>
 8000df2:	1b00      	subs	r0, r0, r4
 8000df4:	2802      	cmp	r0, #2
 8000df6:	d9f6      	bls.n	8000de6 <HAL_RCC_OscConfig+0x2ea>
 8000df8:	e6c4      	b.n	8000b84 <HAL_RCC_OscConfig+0x88>
 8000dfa:	2b01      	cmp	r3, #1
 8000dfc:	f43f aeab 	beq.w	8000b56 <HAL_RCC_OscConfig+0x5a>
 8000e00:	686b      	ldr	r3, [r5, #4]
 8000e02:	69e2      	ldr	r2, [r4, #28]
 8000e04:	f403 0180 	and.w	r1, r3, #4194304	@ 0x400000
 8000e08:	4291      	cmp	r1, r2
 8000e0a:	f47f aea4 	bne.w	8000b56 <HAL_RCC_OscConfig+0x5a>
 8000e0e:	6a21      	ldr	r1, [r4, #32]
 8000e10:	f003 023f 	and.w	r2, r3, #63	@ 0x3f
 8000e14:	428a      	cmp	r2, r1
 8000e16:	f47f ae9e 	bne.w	8000b56 <HAL_RCC_OscConfig+0x5a>
 8000e1a:	6a61      	ldr	r1, [r4, #36]	@ 0x24
 8000e1c:	f647 72c0 	movw	r2, #32704	@ 0x7fc0
 8000e20:	401a      	ands	r2, r3
 8000e22:	ebb2 1f81 	cmp.w	r2, r1, lsl #6
 8000e26:	f47f ae96 	bne.w	8000b56 <HAL_RCC_OscConfig+0x5a>
 8000e2a:	6aa2      	ldr	r2, [r4, #40]	@ 0x28
 8000e2c:	0852      	lsrs	r2, r2, #1
 8000e2e:	f403 3140 	and.w	r1, r3, #196608	@ 0x30000
 8000e32:	3a01      	subs	r2, #1
 8000e34:	ebb1 4f02 	cmp.w	r1, r2, lsl #16
 8000e38:	f47f ae8d 	bne.w	8000b56 <HAL_RCC_OscConfig+0x5a>
 8000e3c:	6ae2      	ldr	r2, [r4, #44]	@ 0x2c
 8000e3e:	f003 6370 	and.w	r3, r3, #251658240	@ 0xf000000
 8000e42:	ebb3 6f02 	cmp.w	r3, r2, lsl #24
 8000e46:	bf14      	ite	ne
 8000e48:	2001      	movne	r0, #1
 8000e4a:	2000      	moveq	r0, #0
 8000e4c:	e69b      	b.n	8000b86 <HAL_RCC_OscConfig+0x8a>
 8000e4e:	bf00      	nop
 8000e50:	40023800 	.word	0x40023800
 8000e54:	42470000 	.word	0x42470000

08000e58 <HAL_RCC_GetSysClockFreq>:
 8000e58:	4913      	ldr	r1, [pc, #76]	@ (8000ea8 <HAL_RCC_GetSysClockFreq+0x50>)
 8000e5a:	b508      	push	{r3, lr}
 8000e5c:	688b      	ldr	r3, [r1, #8]
 8000e5e:	f003 030c 	and.w	r3, r3, #12
 8000e62:	2b04      	cmp	r3, #4
 8000e64:	d01c      	beq.n	8000ea0 <HAL_RCC_GetSysClockFreq+0x48>
 8000e66:	2b08      	cmp	r3, #8
 8000e68:	d11c      	bne.n	8000ea4 <HAL_RCC_GetSysClockFreq+0x4c>
 8000e6a:	684a      	ldr	r2, [r1, #4]
 8000e6c:	684b      	ldr	r3, [r1, #4]
 8000e6e:	6849      	ldr	r1, [r1, #4]
 8000e70:	f413 0380 	ands.w	r3, r3, #4194304	@ 0x400000
 8000e74:	bf14      	ite	ne
 8000e76:	480d      	ldrne	r0, [pc, #52]	@ (8000eac <HAL_RCC_GetSysClockFreq+0x54>)
 8000e78:	480d      	ldreq	r0, [pc, #52]	@ (8000eb0 <HAL_RCC_GetSysClockFreq+0x58>)
 8000e7a:	f3c1 1188 	ubfx	r1, r1, #6, #9
 8000e7e:	bf18      	it	ne
 8000e80:	2300      	movne	r3, #0
 8000e82:	f002 023f 	and.w	r2, r2, #63	@ 0x3f
 8000e86:	fba1 0100 	umull	r0, r1, r1, r0
 8000e8a:	f7ff f9a9 	bl	80001e0 <__aeabi_uldivmod>
 8000e8e:	4b06      	ldr	r3, [pc, #24]	@ (8000ea8 <HAL_RCC_GetSysClockFreq+0x50>)
 8000e90:	685b      	ldr	r3, [r3, #4]
 8000e92:	f3c3 4301 	ubfx	r3, r3, #16, #2
 8000e96:	3301      	adds	r3, #1
 8000e98:	005b      	lsls	r3, r3, #1
 8000e9a:	fbb0 f0f3 	udiv	r0, r0, r3
 8000e9e:	bd08      	pop	{r3, pc}
 8000ea0:	4802      	ldr	r0, [pc, #8]	@ (8000eac <HAL_RCC_GetSysClockFreq+0x54>)
 8000ea2:	e7fc      	b.n	8000e9e <HAL_RCC_GetSysClockFreq+0x46>
 8000ea4:	4802      	ldr	r0, [pc, #8]	@ (8000eb0 <HAL_RCC_GetSysClockFreq+0x58>)
 8000ea6:	e7fa      	b.n	8000e9e <HAL_RCC_GetSysClockFreq+0x46>
 8000ea8:	40023800 	.word	0x40023800
 8000eac:	017d7840 	.word	0x017d7840
 8000eb0:	00f42400 	.word	0x00f42400

08000eb4 <HAL_RCC_ClockConfig>:
 8000eb4:	e92d 41f0 	stmdb	sp!, {r4, r5, r6, r7, r8, lr}
 8000eb8:	460d      	mov	r5, r1
 8000eba:	4604      	mov	r4, r0
 8000ebc:	b910      	cbnz	r0, 8000ec4 <HAL_RCC_ClockConfig+0x10>
 8000ebe:	2001      	movs	r0, #1
 8000ec0:	e8bd 81f0 	ldmia.w	sp!, {r4, r5, r6, r7, r8, pc}
 8000ec4:	4b43      	ldr	r3, [pc, #268]	@ (8000fd4 <HAL_RCC_ClockConfig+0x120>)
 8000ec6:	681a      	ldr	r2, [r3, #0]
 8000ec8:	f002 0207 	and.w	r2, r2, #7
 8000ecc:	428a      	cmp	r2, r1
 8000ece:	d328      	bcc.n	8000f22 <HAL_RCC_ClockConfig+0x6e>
 8000ed0:	6821      	ldr	r1, [r4, #0]
 8000ed2:	078f      	lsls	r7, r1, #30
 8000ed4:	d42d      	bmi.n	8000f32 <HAL_RCC_ClockConfig+0x7e>
 8000ed6:	07c8      	lsls	r0, r1, #31
 8000ed8:	d440      	bmi.n	8000f5c <HAL_RCC_ClockConfig+0xa8>
 8000eda:	4b3e      	ldr	r3, [pc, #248]	@ (8000fd4 <HAL_RCC_ClockConfig+0x120>)
 8000edc:	681a      	ldr	r2, [r3, #0]
 8000ede:	f002 0207 	and.w	r2, r2, #7
 8000ee2:	42aa      	cmp	r2, r5
 8000ee4:	d865      	bhi.n	8000fb2 <HAL_RCC_ClockConfig+0xfe>
 8000ee6:	6822      	ldr	r2, [r4, #0]
 8000ee8:	0751      	lsls	r1, r2, #29
 8000eea:	d46b      	bmi.n	8000fc4 <HAL_RCC_ClockConfig+0x110>
 8000eec:	0713      	lsls	r3, r2, #28
 8000eee:	d507      	bpl.n	8000f00 <HAL_RCC_ClockConfig+0x4c>
 8000ef0:	4a39      	ldr	r2, [pc, #228]	@ (8000fd8 <HAL_RCC_ClockConfig+0x124>)
 8000ef2:	6921      	ldr	r1, [r4, #16]
 8000ef4:	6893      	ldr	r3, [r2, #8]
 8000ef6:	f423 4360 	bic.w	r3, r3, #57344	@ 0xe000
 8000efa:	ea43 03c1 	orr.w	r3, r3, r1, lsl #3
 8000efe:	6093      	str	r3, [r2, #8]
 8000f00:	f7ff ffaa 	bl	8000e58 <HAL_RCC_GetSysClockFreq>
 8000f04:	4b34      	ldr	r3, [pc, #208]	@ (8000fd8 <HAL_RCC_ClockConfig+0x124>)
 8000f06:	4a35      	ldr	r2, [pc, #212]	@ (8000fdc <HAL_RCC_ClockConfig+0x128>)
 8000f08:	689b      	ldr	r3, [r3, #8]
 8000f0a:	f3c3 1303 	ubfx	r3, r3, #4, #4
 8000f0e:	5cd3      	ldrb	r3, [r2, r3]
 8000f10:	40d8      	lsrs	r0, r3
 8000f12:	4b33      	ldr	r3, [pc, #204]	@ (8000fe0 <HAL_RCC_ClockConfig+0x12c>)
 8000f14:	6018      	str	r0, [r3, #0]
 8000f16:	4b33      	ldr	r3, [pc, #204]	@ (8000fe4 <HAL_RCC_ClockConfig+0x130>)
 8000f18:	6818      	ldr	r0, [r3, #0]
 8000f1a:	f7ff fbd9 	bl	80006d0 <HAL_InitTick>
 8000f1e:	2000      	movs	r0, #0
 8000f20:	e7ce      	b.n	8000ec0 <HAL_RCC_ClockConfig+0xc>
 8000f22:	b2ca      	uxtb	r2, r1
 8000f24:	701a      	strb	r2, [r3, #0]
 8000f26:	681b      	ldr	r3, [r3, #0]
 8000f28:	f003 0307 	and.w	r3, r3, #7
 8000f2c:	428b      	cmp	r3, r1
 8000f2e:	d1c6      	bne.n	8000ebe <HAL_RCC_ClockConfig+0xa>
 8000f30:	e7ce      	b.n	8000ed0 <HAL_RCC_ClockConfig+0x1c>
 8000f32:	4b29      	ldr	r3, [pc, #164]	@ (8000fd8 <HAL_RCC_ClockConfig+0x124>)
 8000f34:	f011 0f04 	tst.w	r1, #4
 8000f38:	bf1e      	ittt	ne
 8000f3a:	689a      	ldrne	r2, [r3, #8]
 8000f3c:	f442 52e0 	orrne.w	r2, r2, #7168	@ 0x1c00
 8000f40:	609a      	strne	r2, [r3, #8]
 8000f42:	070e      	lsls	r6, r1, #28
 8000f44:	bf42      	ittt	mi
 8000f46:	689a      	ldrmi	r2, [r3, #8]
 8000f48:	f442 4260 	orrmi.w	r2, r2, #57344	@ 0xe000
 8000f4c:	609a      	strmi	r2, [r3, #8]
 8000f4e:	689a      	ldr	r2, [r3, #8]
 8000f50:	68a0      	ldr	r0, [r4, #8]
 8000f52:	f022 02f0 	bic.w	r2, r2, #240	@ 0xf0
 8000f56:	4302      	orrs	r2, r0
 8000f58:	609a      	str	r2, [r3, #8]
 8000f5a:	e7bc      	b.n	8000ed6 <HAL_RCC_ClockConfig+0x22>
 8000f5c:	6862      	ldr	r2, [r4, #4]
 8000f5e:	4b1e      	ldr	r3, [pc, #120]	@ (8000fd8 <HAL_RCC_ClockConfig+0x124>)
 8000f60:	2a01      	cmp	r2, #1
 8000f62:	d11c      	bne.n	8000f9e <HAL_RCC_ClockConfig+0xea>
 8000f64:	681b      	ldr	r3, [r3, #0]
 8000f66:	f413 3f00 	tst.w	r3, #131072	@ 0x20000
 8000f6a:	d0a8      	beq.n	8000ebe <HAL_RCC_ClockConfig+0xa>
 8000f6c:	4e1a      	ldr	r6, [pc, #104]	@ (8000fd8 <HAL_RCC_ClockConfig+0x124>)
 8000f6e:	68b3      	ldr	r3, [r6, #8]
 8000f70:	f023 0303 	bic.w	r3, r3, #3
 8000f74:	4313      	orrs	r3, r2
 8000f76:	60b3      	str	r3, [r6, #8]
 8000f78:	f7ff fc98 	bl	80008ac <HAL_GetTick>
 8000f7c:	f241 3888 	movw	r8, #5000	@ 0x1388
 8000f80:	4607      	mov	r7, r0
 8000f82:	68b3      	ldr	r3, [r6, #8]
 8000f84:	6862      	ldr	r2, [r4, #4]
 8000f86:	f003 030c 	and.w	r3, r3, #12
 8000f8a:	ebb3 0f82 	cmp.w	r3, r2, lsl #2
 8000f8e:	d0a4      	beq.n	8000eda <HAL_RCC_ClockConfig+0x26>
 8000f90:	f7ff fc8c 	bl	80008ac <HAL_GetTick>
 8000f94:	1bc0      	subs	r0, r0, r7
 8000f96:	4540      	cmp	r0, r8
 8000f98:	d9f3      	bls.n	8000f82 <HAL_RCC_ClockConfig+0xce>
 8000f9a:	2003      	movs	r0, #3
 8000f9c:	e790      	b.n	8000ec0 <HAL_RCC_ClockConfig+0xc>
 8000f9e:	1e91      	subs	r1, r2, #2
 8000fa0:	2901      	cmp	r1, #1
 8000fa2:	681b      	ldr	r3, [r3, #0]
 8000fa4:	d802      	bhi.n	8000fac <HAL_RCC_ClockConfig+0xf8>
 8000fa6:	f013 7f00 	tst.w	r3, #33554432	@ 0x2000000
 8000faa:	e7de      	b.n	8000f6a <HAL_RCC_ClockConfig+0xb6>
 8000fac:	f013 0f02 	tst.w	r3, #2
 8000fb0:	e7db      	b.n	8000f6a <HAL_RCC_ClockConfig+0xb6>
 8000fb2:	b2ea      	uxtb	r2, r5
 8000fb4:	701a      	strb	r2, [r3, #0]
 8000fb6:	681b      	ldr	r3, [r3, #0]
 8000fb8:	f003 0307 	and.w	r3, r3, #7
 8000fbc:	42ab      	cmp	r3, r5
 8000fbe:	f47f af7e 	bne.w	8000ebe <HAL_RCC_ClockConfig+0xa>
 8000fc2:	e790      	b.n	8000ee6 <HAL_RCC_ClockConfig+0x32>
 8000fc4:	4904      	ldr	r1, [pc, #16]	@ (8000fd8 <HAL_RCC_ClockConfig+0x124>)
 8000fc6:	68e0      	ldr	r0, [r4, #12]
 8000fc8:	688b      	ldr	r3, [r1, #8]
 8000fca:	f423 53e0 	bic.w	r3, r3, #7168	@ 0x1c00
 8000fce:	4303      	orrs	r3, r0
 8000fd0:	608b      	str	r3, [r1, #8]
 8000fd2:	e78b      	b.n	8000eec <HAL_RCC_ClockConfig+0x38>
 8000fd4:	40023c00 	.word	0x40023c00
 8000fd8:	40023800 	.word	0x40023800
 8000fdc:	08003a0f 	.word	0x08003a0f
 8000fe0:	20000000 	.word	0x20000000
 8000fe4:	20000008 	.word	0x20000008

08000fe8 <HAL_RCC_GetPCLK1Freq>:
 8000fe8:	4b04      	ldr	r3, [pc, #16]	@ (8000ffc <HAL_RCC_GetPCLK1Freq+0x14>)
 8000fea:	4a05      	ldr	r2, [pc, #20]	@ (8001000 <HAL_RCC_GetPCLK1Freq+0x18>)
 8000fec:	689b      	ldr	r3, [r3, #8]
 8000fee:	f3c3 2382 	ubfx	r3, r3, #10, #3
 8000ff2:	5cd3      	ldrb	r3, [r2, r3]
 8000ff4:	4a03      	ldr	r2, [pc, #12]	@ (8001004 <HAL_RCC_GetPCLK1Freq+0x1c>)
 8000ff6:	6810      	ldr	r0, [r2, #0]
 8000ff8:	40d8      	lsrs	r0, r3
 8000ffa:	4770      	bx	lr
 8000ffc:	40023800 	.word	0x40023800
 8001000:	08003a07 	.word	0x08003a07
 8001004:	20000000 	.word	0x20000000

08001008 <HAL_RCC_GetClockConfig>:
 8001008:	230f      	movs	r3, #15
 800100a:	6003      	str	r3, [r0, #0]
 800100c:	4b0b      	ldr	r3, [pc, #44]	@ (800103c <HAL_RCC_GetClockConfig+0x34>)
 800100e:	689a      	ldr	r2, [r3, #8]
 8001010:	f002 0203 	and.w	r2, r2, #3
 8001014:	6042      	str	r2, [r0, #4]
 8001016:	689a      	ldr	r2, [r3, #8]
 8001018:	f002 02f0 	and.w	r2, r2, #240	@ 0xf0
 800101c:	6082      	str	r2, [r0, #8]
 800101e:	689a      	ldr	r2, [r3, #8]
 8001020:	f402 52e0 	and.w	r2, r2, #7168	@ 0x1c00
 8001024:	60c2      	str	r2, [r0, #12]
 8001026:	689b      	ldr	r3, [r3, #8]
 8001028:	08db      	lsrs	r3, r3, #3
 800102a:	f403 53e0 	and.w	r3, r3, #7168	@ 0x1c00
 800102e:	6103      	str	r3, [r0, #16]
 8001030:	4b03      	ldr	r3, [pc, #12]	@ (8001040 <HAL_RCC_GetClockConfig+0x38>)
 8001032:	681b      	ldr	r3, [r3, #0]
 8001034:	f003 0307 	and.w	r3, r3, #7
 8001038:	600b      	str	r3, [r1, #0]
 800103a:	4770      	bx	lr
 800103c:	40023800 	.word	0x40023800
 8001040:	40023c00 	.word	0x40023c00

08001044 <HAL_TIM_Base_MspInit>:
 8001044:	4770      	bx	lr
	...

08001048 <HAL_TIM_Base_Start_IT>:
 8001048:	f890 303d 	ldrb.w	r3, [r0, #61]	@ 0x3d
 800104c:	2b01      	cmp	r3, #1
 800104e:	d128      	bne.n	80010a2 <HAL_TIM_Base_Start_IT+0x5a>
 8001050:	2302      	movs	r3, #2
 8001052:	f880 303d 	strb.w	r3, [r0, #61]	@ 0x3d
 8001056:	6803      	ldr	r3, [r0, #0]
 8001058:	68da      	ldr	r2, [r3, #12]
 800105a:	f042 0201 	orr.w	r2, r2, #1
 800105e:	60da      	str	r2, [r3, #12]
 8001060:	4a11      	ldr	r2, [pc, #68]	@ (80010a8 <HAL_TIM_Base_Start_IT+0x60>)
 8001062:	4293      	cmp	r3, r2
 8001064:	d012      	beq.n	800108c <HAL_TIM_Base_Start_IT+0x44>
 8001066:	f1b3 4f80 	cmp.w	r3, #1073741824	@ 0x40000000
 800106a:	d00f      	beq.n	800108c <HAL_TIM_Base_Start_IT+0x44>
 800106c:	f5a2 427c 	sub.w	r2, r2, #64512	@ 0xfc00
 8001070:	4293      	cmp	r3, r2
 8001072:	d00b      	beq.n	800108c <HAL_TIM_Base_Start_IT+0x44>
 8001074:	f502 6280 	add.w	r2, r2, #1024	@ 0x400
 8001078:	4293      	cmp	r3, r2
 800107a:	d007      	beq.n	800108c <HAL_TIM_Base_Start_IT+0x44>
 800107c:	f502 6280 	add.w	r2, r2, #1024	@ 0x400
 8001080:	4293      	cmp	r3, r2
 8001082:	d003      	beq.n	800108c <HAL_TIM_Base_Start_IT+0x44>
 8001084:	f502 329a 	add.w	r2, r2, #78848	@ 0x13400
 8001088:	4293      	cmp	r3, r2
 800108a:	d104      	bne.n	8001096 <HAL_TIM_Base_Start_IT+0x4e>
 800108c:	689a      	ldr	r2, [r3, #8]
 800108e:	f002 0207 	and.w	r2, r2, #7
 8001092:	2a06      	cmp	r2, #6
 8001094:	d003      	beq.n	800109e <HAL_TIM_Base_Start_IT+0x56>
 8001096:	681a      	ldr	r2, [r3, #0]
 8001098:	f042 0201 	orr.w	r2, r2, #1
 800109c:	601a      	str	r2, [r3, #0]
 800109e:	2000      	movs	r0, #0
 80010a0:	4770      	bx	lr
 80010a2:	2001      	movs	r0, #1
 80010a4:	4770      	bx	lr
 80010a6:	bf00      	nop
 80010a8:	40010000 	.word	0x40010000

080010ac <HAL_TIM_OC_DelayElapsedCallback>:
 80010ac:	4770      	bx	lr

080010ae <HAL_TIM_IC_CaptureCallback>:
 80010ae:	4770      	bx	lr

080010b0 <HAL_TIM_PWM_PulseFinishedCallback>:
 80010b0:	4770      	bx	lr

080010b2 <HAL_TIM_TriggerCallback>:
 80010b2:	4770      	bx	lr

080010b4 <HAL_TIM_IRQHandler>:
 80010b4:	6803      	ldr	r3, [r0, #0]
 80010b6:	691a      	ldr	r2, [r3, #16]
 80010b8:	0791      	lsls	r1, r2, #30
 80010ba:	b510      	push	{r4, lr}
 80010bc:	4604      	mov	r4, r0
 80010be:	d50e      	bpl.n	80010de <HAL_TIM_IRQHandler+0x2a>
 80010c0:	68da      	ldr	r2, [r3, #12]
 80010c2:	0792      	lsls	r2, r2, #30
 80010c4:	d50b      	bpl.n	80010de <HAL_TIM_IRQHandler+0x2a>
 80010c6:	f06f 0202 	mvn.w	r2, #2
 80010ca:	611a      	str	r2, [r3, #16]
 80010cc:	2201      	movs	r2, #1
 80010ce:	7702      	strb	r2, [r0, #28]
 80010d0:	699b      	ldr	r3, [r3, #24]
 80010d2:	079b      	lsls	r3, r3, #30
 80010d4:	d077      	beq.n	80011c6 <HAL_TIM_IRQHandler+0x112>
 80010d6:	f7ff ffea 	bl	80010ae <HAL_TIM_IC_CaptureCallback>
 80010da:	2300      	movs	r3, #0
 80010dc:	7723      	strb	r3, [r4, #28]
 80010de:	6823      	ldr	r3, [r4, #0]
 80010e0:	691a      	ldr	r2, [r3, #16]
 80010e2:	0750      	lsls	r0, r2, #29
 80010e4:	d510      	bpl.n	8001108 <HAL_TIM_IRQHandler+0x54>
 80010e6:	68da      	ldr	r2, [r3, #12]
 80010e8:	0751      	lsls	r1, r2, #29
 80010ea:	d50d      	bpl.n	8001108 <HAL_TIM_IRQHandler+0x54>
 80010ec:	f06f 0204 	mvn.w	r2, #4
 80010f0:	611a      	str	r2, [r3, #16]
 80010f2:	2202      	movs	r2, #2
 80010f4:	7722      	strb	r2, [r4, #28]
 80010f6:	699b      	ldr	r3, [r3, #24]
 80010f8:	f413 7f40 	tst.w	r3, #768	@ 0x300
 80010fc:	4620      	mov	r0, r4
 80010fe:	d068      	beq.n	80011d2 <HAL_TIM_IRQHandler+0x11e>
 8001100:	f7ff ffd5 	bl	80010ae <HAL_TIM_IC_CaptureCallback>
 8001104:	2300      	movs	r3, #0
 8001106:	7723      	strb	r3, [r4, #28]
 8001108:	6823      	ldr	r3, [r4, #0]
 800110a:	691a      	ldr	r2, [r3, #16]
 800110c:	0712      	lsls	r2, r2, #28
 800110e:	d50f      	bpl.n	8001130 <HAL_TIM_IRQHandler+0x7c>
 8001110:	68da      	ldr	r2, [r3, #12]
 8001112:	0710      	lsls	r0, r2, #28
 8001114:	d50c      	bpl.n	8001130 <HAL_TIM_IRQHandler+0x7c>
 8001116:	f06f 0208 	mvn.w	r2, #8
 800111a:	611a      	str	r2, [r3, #16]
 800111c:	2204      	movs	r2, #4
 800111e:	7722      	strb	r2, [r4, #28]
 8001120:	69db      	ldr	r3, [r3, #28]
 8001122:	0799      	lsls	r1, r3, #30
 8001124:	4620      	mov	r0, r4
 8001126:	d05a      	beq.n	80011de <HAL_TIM_IRQHandler+0x12a>
 8001128:	f7ff ffc1 	bl	80010ae <HAL_TIM_IC_CaptureCallback>
 800112c:	2300      	movs	r3, #0
 800112e:	7723      	strb	r3, [r4, #28]
 8001130:	6823      	ldr	r3, [r4, #0]
 8001132:	691a      	ldr	r2, [r3, #16]
 8001134:	06d2      	lsls	r2, r2, #27
 8001136:	d510      	bpl.n	800115a <HAL_TIM_IRQHandler+0xa6>
 8001138:	68da      	ldr	r2, [r3, #12]
 800113a:	06d0      	lsls	r0, r2, #27
 800113c:	d50d      	bpl.n	800115a <HAL_TIM_IRQHandler+0xa6>
 800113e:	f06f 0210 	mvn.w	r2, #16
 8001142:	611a      	str	r2, [r3, #16]
 8001144:	2208      	movs	r2, #8
 8001146:	7722      	strb	r2, [r4, #28]
 8001148:	69db      	ldr	r3, [r3, #28]
 800114a:	f413 7f40 	tst.w	r3, #768	@ 0x300
 800114e:	4620      	mov	r0, r4
 8001150:	d04b      	beq.n	80011ea <HAL_TIM_IRQHandler+0x136>
 8001152:	f7ff ffac 	bl	80010ae <HAL_TIM_IC_CaptureCallback>
 8001156:	2300      	movs	r3, #0
 8001158:	7723      	strb	r3, [r4, #28]
 800115a:	6823      	ldr	r3, [r4, #0]
 800115c:	691a      	ldr	r2, [r3, #16]
 800115e:	07d1      	lsls	r1, r2, #31
 8001160:	d508      	bpl.n	8001174 <HAL_TIM_IRQHandler+0xc0>
 8001162:	68da      	ldr	r2, [r3, #12]
 8001164:	07d2      	lsls	r2, r2, #31
 8001166:	d505      	bpl.n	8001174 <HAL_TIM_IRQHandler+0xc0>
 8001168:	f06f 0201 	mvn.w	r2, #1
 800116c:	611a      	str	r2, [r3, #16]
 800116e:	4620      	mov	r0, r4
 8001170:	f7ff fa84 	bl	800067c <HAL_TIM_PeriodElapsedCallback>
 8001174:	6823      	ldr	r3, [r4, #0]
 8001176:	691a      	ldr	r2, [r3, #16]
 8001178:	0610      	lsls	r0, r2, #24
 800117a:	d508      	bpl.n	800118e <HAL_TIM_IRQHandler+0xda>
 800117c:	68da      	ldr	r2, [r3, #12]
 800117e:	0611      	lsls	r1, r2, #24
 8001180:	d505      	bpl.n	800118e <HAL_TIM_IRQHandler+0xda>
 8001182:	f06f 0280 	mvn.w	r2, #128	@ 0x80
 8001186:	611a      	str	r2, [r3, #16]
 8001188:	4620      	mov	r0, r4
 800118a:	f000 f8b0 	bl	80012ee <HAL_TIMEx_BreakCallback>
 800118e:	6823      	ldr	r3, [r4, #0]
 8001190:	691a      	ldr	r2, [r3, #16]
 8001192:	0652      	lsls	r2, r2, #25
 8001194:	d508      	bpl.n	80011a8 <HAL_TIM_IRQHandler+0xf4>
 8001196:	68da      	ldr	r2, [r3, #12]
 8001198:	0650      	lsls	r0, r2, #25
 800119a:	d505      	bpl.n	80011a8 <HAL_TIM_IRQHandler+0xf4>
 800119c:	f06f 0240 	mvn.w	r2, #64	@ 0x40
 80011a0:	611a      	str	r2, [r3, #16]
 80011a2:	4620      	mov	r0, r4
 80011a4:	f7ff ff85 	bl	80010b2 <HAL_TIM_TriggerCallback>
 80011a8:	6823      	ldr	r3, [r4, #0]
 80011aa:	691a      	ldr	r2, [r3, #16]
 80011ac:	0691      	lsls	r1, r2, #26
 80011ae:	d522      	bpl.n	80011f6 <HAL_TIM_IRQHandler+0x142>
 80011b0:	68da      	ldr	r2, [r3, #12]
 80011b2:	0692      	lsls	r2, r2, #26
 80011b4:	d51f      	bpl.n	80011f6 <HAL_TIM_IRQHandler+0x142>
 80011b6:	f06f 0220 	mvn.w	r2, #32
 80011ba:	4620      	mov	r0, r4
 80011bc:	611a      	str	r2, [r3, #16]
 80011be:	e8bd 4010 	ldmia.w	sp!, {r4, lr}
 80011c2:	f000 b893 	b.w	80012ec <HAL_TIMEx_CommutCallback>
 80011c6:	f7ff ff71 	bl	80010ac <HAL_TIM_OC_DelayElapsedCallback>
 80011ca:	4620      	mov	r0, r4
 80011cc:	f7ff ff70 	bl	80010b0 <HAL_TIM_PWM_PulseFinishedCallback>
 80011d0:	e783      	b.n	80010da <HAL_TIM_IRQHandler+0x26>
 80011d2:	f7ff ff6b 	bl	80010ac <HAL_TIM_OC_DelayElapsedCallback>
 80011d6:	4620      	mov	r0, r4
 80011d8:	f7ff ff6a 	bl	80010b0 <HAL_TIM_PWM_PulseFinishedCallback>
 80011dc:	e792      	b.n	8001104 <HAL_TIM_IRQHandler+0x50>
 80011de:	f7ff ff65 	bl	80010ac <HAL_TIM_OC_DelayElapsedCallback>
 80011e2:	4620      	mov	r0, r4
 80011e4:	f7ff ff64 	bl	80010b0 <HAL_TIM_PWM_PulseFinishedCallback>
 80011e8:	e7a0      	b.n	800112c <HAL_TIM_IRQHandler+0x78>
 80011ea:	f7ff ff5f 	bl	80010ac <HAL_TIM_OC_DelayElapsedCallback>
 80011ee:	4620      	mov	r0, r4
 80011f0:	f7ff ff5e 	bl	80010b0 <HAL_TIM_PWM_PulseFinishedCallback>
 80011f4:	e7af      	b.n	8001156 <HAL_TIM_IRQHandler+0xa2>
 80011f6:	bd10      	pop	{r4, pc}

080011f8 <TIM_Base_SetConfig>:
 80011f8:	4a24      	ldr	r2, [pc, #144]	@ (800128c <TIM_Base_SetConfig+0x94>)
 80011fa:	6803      	ldr	r3, [r0, #0]
 80011fc:	4290      	cmp	r0, r2
 80011fe:	d00e      	beq.n	800121e <TIM_Base_SetConfig+0x26>
 8001200:	f1b0 4f80 	cmp.w	r0, #1073741824	@ 0x40000000
 8001204:	d00b      	beq.n	800121e <TIM_Base_SetConfig+0x26>
 8001206:	f5a2 427c 	sub.w	r2, r2, #64512	@ 0xfc00
 800120a:	4290      	cmp	r0, r2
 800120c:	d007      	beq.n	800121e <TIM_Base_SetConfig+0x26>
 800120e:	f502 6280 	add.w	r2, r2, #1024	@ 0x400
 8001212:	4290      	cmp	r0, r2
 8001214:	d003      	beq.n	800121e <TIM_Base_SetConfig+0x26>
 8001216:	f502 6280 	add.w	r2, r2, #1024	@ 0x400
 800121a:	4290      	cmp	r0, r2
 800121c:	d115      	bne.n	800124a <TIM_Base_SetConfig+0x52>
 800121e:	684a      	ldr	r2, [r1, #4]
 8001220:	f023 0370 	bic.w	r3, r3, #112	@ 0x70
 8001224:	4313      	orrs	r3, r2
 8001226:	4a19      	ldr	r2, [pc, #100]	@ (800128c <TIM_Base_SetConfig+0x94>)
 8001228:	4290      	cmp	r0, r2
 800122a:	d019      	beq.n	8001260 <TIM_Base_SetConfig+0x68>
 800122c:	f1b0 4f80 	cmp.w	r0, #1073741824	@ 0x40000000
 8001230:	d016      	beq.n	8001260 <TIM_Base_SetConfig+0x68>
 8001232:	f5a2 427c 	sub.w	r2, r2, #64512	@ 0xfc00
 8001236:	4290      	cmp	r0, r2
 8001238:	d012      	beq.n	8001260 <TIM_Base_SetConfig+0x68>
 800123a:	f502 6280 	add.w	r2, r2, #1024	@ 0x400
 800123e:	4290      	cmp	r0, r2
 8001240:	d00e      	beq.n	8001260 <TIM_Base_SetConfig+0x68>
 8001242:	f502 6280 	add.w	r2, r2, #1024	@ 0x400
 8001246:	4290      	cmp	r0, r2
 8001248:	d00a      	beq.n	8001260 <TIM_Base_SetConfig+0x68>
 800124a:	4a11      	ldr	r2, [pc, #68]	@ (8001290 <TIM_Base_SetConfig+0x98>)
 800124c:	4290      	cmp	r0, r2
 800124e:	d007      	beq.n	8001260 <TIM_Base_SetConfig+0x68>
 8001250:	f502 6280 	add.w	r2, r2, #1024	@ 0x400
 8001254:	4290      	cmp	r0, r2
 8001256:	d003      	beq.n	8001260 <TIM_Base_SetConfig+0x68>
 8001258:	f502 6280 	add.w	r2, r2, #1024	@ 0x400
 800125c:	4290      	cmp	r0, r2
 800125e:	d103      	bne.n	8001268 <TIM_Base_SetConfig+0x70>
 8001260:	68ca      	ldr	r2, [r1, #12]
 8001262:	f423 7340 	bic.w	r3, r3, #768	@ 0x300
 8001266:	4313      	orrs	r3, r2
 8001268:	694a      	ldr	r2, [r1, #20]
 800126a:	f023 0380 	bic.w	r3, r3, #128	@ 0x80
 800126e:	4313      	orrs	r3, r2
 8001270:	6003      	str	r3, [r0, #0]
 8001272:	688b      	ldr	r3, [r1, #8]
 8001274:	62c3      	str	r3, [r0, #44]	@ 0x2c
 8001276:	680b      	ldr	r3, [r1, #0]
 8001278:	6283      	str	r3, [r0, #40]	@ 0x28
 800127a:	4b04      	ldr	r3, [pc, #16]	@ (800128c <TIM_Base_SetConfig+0x94>)
 800127c:	4298      	cmp	r0, r3
 800127e:	bf04      	itt	eq
 8001280:	690b      	ldreq	r3, [r1, #16]
 8001282:	6303      	streq	r3, [r0, #48]	@ 0x30
 8001284:	2301      	movs	r3, #1
 8001286:	6143      	str	r3, [r0, #20]
 8001288:	4770      	bx	lr
 800128a:	bf00      	nop
 800128c:	40010000 	.word	0x40010000
 8001290:	40014000 	.word	0x40014000

08001294 <HAL_TIM_Base_Init>:
 8001294:	b510      	push	{r4, lr}
 8001296:	4604      	mov	r4, r0
 8001298:	b330      	cbz	r0, 80012e8 <HAL_TIM_Base_Init+0x54>
 800129a:	f890 303d 	ldrb.w	r3, [r0, #61]	@ 0x3d
 800129e:	f003 02ff 	and.w	r2, r3, #255	@ 0xff
 80012a2:	b91b      	cbnz	r3, 80012ac <HAL_TIM_Base_Init+0x18>
 80012a4:	f880 203c 	strb.w	r2, [r0, #60]	@ 0x3c
 80012a8:	f7ff fecc 	bl	8001044 <HAL_TIM_Base_MspInit>
 80012ac:	2302      	movs	r3, #2
 80012ae:	6820      	ldr	r0, [r4, #0]
 80012b0:	f884 303d 	strb.w	r3, [r4, #61]	@ 0x3d
 80012b4:	1d21      	adds	r1, r4, #4
 80012b6:	f7ff ff9f 	bl	80011f8 <TIM_Base_SetConfig>
 80012ba:	2301      	movs	r3, #1
 80012bc:	f884 3046 	strb.w	r3, [r4, #70]	@ 0x46
 80012c0:	2000      	movs	r0, #0
 80012c2:	f884 303e 	strb.w	r3, [r4, #62]	@ 0x3e
 80012c6:	f884 303f 	strb.w	r3, [r4, #63]	@ 0x3f
 80012ca:	f884 3040 	strb.w	r3, [r4, #64]	@ 0x40
 80012ce:	f884 3041 	strb.w	r3, [r4, #65]	@ 0x41
 80012d2:	f884 3042 	strb.w	r3, [r4, #66]	@ 0x42
 80012d6:	f884 3043 	strb.w	r3, [r4, #67]	@ 0x43
 80012da:	f884 3044 	strb.w	r3, [r4, #68]	@ 0x44
 80012de:	f884 3045 	strb.w	r3, [r4, #69]	@ 0x45
 80012e2:	f884 303d 	strb.w	r3, [r4, #61]	@ 0x3d
 80012e6:	bd10      	pop	{r4, pc}
 80012e8:	2001      	movs	r0, #1
 80012ea:	e7fc      	b.n	80012e6 <HAL_TIM_Base_Init+0x52>

080012ec <HAL_TIMEx_CommutCallback>:
 80012ec:	4770      	bx	lr

080012ee <HAL_TIMEx_BreakCallback>:
 80012ee:	4770      	bx	lr

080012f0 <SysTick_Handler>:
 80012f0:	b508      	push	{r3, lr}
 80012f2:	f04f 23e0 	mov.w	r3, #3758153728	@ 0xe000e000
 80012f6:	691b      	ldr	r3, [r3, #16]
 80012f8:	f001 f97c 	bl	80025f4 <xTaskGetSchedulerState>
 80012fc:	2801      	cmp	r0, #1
 80012fe:	d003      	beq.n	8001308 <SysTick_Handler+0x18>
 8001300:	e8bd 4008 	ldmia.w	sp!, {r3, lr}
 8001304:	f001 bc7e 	b.w	8002c04 <xPortSysTickHandler>
 8001308:	bd08      	pop	{r3, pc}
	...

0800130c <osKernelInitialize>:
 800130c:	f3ef 8305 	mrs	r3, IPSR
 8001310:	b92b      	cbnz	r3, 800131e <osKernelInitialize+0x12>
 8001312:	4b06      	ldr	r3, [pc, #24]	@ (800132c <osKernelInitialize+0x20>)
 8001314:	6818      	ldr	r0, [r3, #0]
 8001316:	b928      	cbnz	r0, 8001324 <osKernelInitialize+0x18>
 8001318:	2201      	movs	r2, #1
 800131a:	601a      	str	r2, [r3, #0]
 800131c:	4770      	bx	lr
 800131e:	f06f 0005 	mvn.w	r0, #5
 8001322:	4770      	bx	lr
 8001324:	f04f 30ff 	mov.w	r0, #4294967295
 8001328:	4770      	bx	lr
 800132a:	bf00      	nop
 800132c:	200007a0 	.word	0x200007a0

08001330 <osKernelStart>:
 8001330:	b510      	push	{r4, lr}
 8001332:	f3ef 8405 	mrs	r4, IPSR
 8001336:	b95c      	cbnz	r4, 8001350 <osKernelStart+0x20>
 8001338:	4b08      	ldr	r3, [pc, #32]	@ (800135c <osKernelStart+0x2c>)
 800133a:	681a      	ldr	r2, [r3, #0]
 800133c:	2a01      	cmp	r2, #1
 800133e:	d10a      	bne.n	8001356 <osKernelStart+0x26>
 8001340:	4a07      	ldr	r2, [pc, #28]	@ (8001360 <osKernelStart+0x30>)
 8001342:	77d4      	strb	r4, [r2, #31]
 8001344:	2202      	movs	r2, #2
 8001346:	601a      	str	r2, [r3, #0]
 8001348:	f000 fed2 	bl	80020f0 <vTaskStartScheduler>
 800134c:	4620      	mov	r0, r4
 800134e:	bd10      	pop	{r4, pc}
 8001350:	f06f 0005 	mvn.w	r0, #5
 8001354:	e7fb      	b.n	800134e <osKernelStart+0x1e>
 8001356:	f04f 30ff 	mov.w	r0, #4294967295
 800135a:	e7f8      	b.n	800134e <osKernelStart+0x1e>
 800135c:	200007a0 	.word	0x200007a0
 8001360:	e000ed00 	.word	0xe000ed00

08001364 <osThreadNew>:
 8001364:	b5f0      	push	{r4, r5, r6, r7, lr}
 8001366:	b087      	sub	sp, #28
 8001368:	4614      	mov	r4, r2
 800136a:	2200      	movs	r2, #0
 800136c:	460b      	mov	r3, r1
 800136e:	9205      	str	r2, [sp, #20]
 8001370:	f3ef 8205 	mrs	r2, IPSR
 8001374:	b9ca      	cbnz	r2, 80013aa <osThreadNew+0x46>
 8001376:	b1c0      	cbz	r0, 80013aa <osThreadNew+0x46>
 8001378:	b36c      	cbz	r4, 80013d6 <osThreadNew+0x72>
 800137a:	69a5      	ldr	r5, [r4, #24]
 800137c:	2d00      	cmp	r5, #0
 800137e:	bf08      	it	eq
 8001380:	2518      	moveq	r5, #24
 8001382:	1e69      	subs	r1, r5, #1
 8001384:	2937      	cmp	r1, #55	@ 0x37
 8001386:	46ac      	mov	ip, r5
 8001388:	d82a      	bhi.n	80013e0 <osThreadNew+0x7c>
 800138a:	6861      	ldr	r1, [r4, #4]
 800138c:	07c9      	lsls	r1, r1, #31
 800138e:	d427      	bmi.n	80013e0 <osThreadNew+0x7c>
 8001390:	6966      	ldr	r6, [r4, #20]
 8001392:	b16e      	cbz	r6, 80013b0 <osThreadNew+0x4c>
 8001394:	08b2      	lsrs	r2, r6, #2
 8001396:	e9d4 7e02 	ldrd	r7, lr, [r4, #8]
 800139a:	6821      	ldr	r1, [r4, #0]
 800139c:	b157      	cbz	r7, 80013b4 <osThreadNew+0x50>
 800139e:	f1be 0f5b 	cmp.w	lr, #91	@ 0x5b
 80013a2:	d902      	bls.n	80013aa <osThreadNew+0x46>
 80013a4:	6924      	ldr	r4, [r4, #16]
 80013a6:	b104      	cbz	r4, 80013aa <osThreadNew+0x46>
 80013a8:	b9e6      	cbnz	r6, 80013e4 <osThreadNew+0x80>
 80013aa:	9805      	ldr	r0, [sp, #20]
 80013ac:	b007      	add	sp, #28
 80013ae:	bdf0      	pop	{r4, r5, r6, r7, pc}
 80013b0:	2280      	movs	r2, #128	@ 0x80
 80013b2:	e7f0      	b.n	8001396 <osThreadNew+0x32>
 80013b4:	f1be 0f00 	cmp.w	lr, #0
 80013b8:	d1f7      	bne.n	80013aa <osThreadNew+0x46>
 80013ba:	6924      	ldr	r4, [r4, #16]
 80013bc:	2c00      	cmp	r4, #0
 80013be:	d1f4      	bne.n	80013aa <osThreadNew+0x46>
 80013c0:	ac05      	add	r4, sp, #20
 80013c2:	e9cd c400 	strd	ip, r4, [sp]
 80013c6:	b292      	uxth	r2, r2
 80013c8:	f000 fe63 	bl	8002092 <xTaskCreate>
 80013cc:	2801      	cmp	r0, #1
 80013ce:	bf1c      	itt	ne
 80013d0:	2300      	movne	r3, #0
 80013d2:	9305      	strne	r3, [sp, #20]
 80013d4:	e7e9      	b.n	80013aa <osThreadNew+0x46>
 80013d6:	4621      	mov	r1, r4
 80013d8:	f04f 0c18 	mov.w	ip, #24
 80013dc:	2280      	movs	r2, #128	@ 0x80
 80013de:	e7ef      	b.n	80013c0 <osThreadNew+0x5c>
 80013e0:	4610      	mov	r0, r2
 80013e2:	e7e3      	b.n	80013ac <osThreadNew+0x48>
 80013e4:	e9cd 4701 	strd	r4, r7, [sp, #4]
 80013e8:	9500      	str	r5, [sp, #0]
 80013ea:	f000 fe1a 	bl	8002022 <xTaskCreateStatic>
 80013ee:	9005      	str	r0, [sp, #20]
 80013f0:	e7db      	b.n	80013aa <osThreadNew+0x46>

080013f2 <osDelay>:
 80013f2:	b508      	push	{r3, lr}
 80013f4:	f3ef 8205 	mrs	r2, IPSR
 80013f8:	b922      	cbnz	r2, 8001404 <osDelay+0x12>
 80013fa:	b108      	cbz	r0, 8001400 <osDelay+0xe>
 80013fc:	f000 ffd6 	bl	80023ac <vTaskDelay>
 8001400:	2000      	movs	r0, #0
 8001402:	bd08      	pop	{r3, pc}
 8001404:	f06f 0005 	mvn.w	r0, #5
 8001408:	e7fb      	b.n	8001402 <osDelay+0x10>

0800140a <osSemaphoreNew>:
 800140a:	b5f7      	push	{r0, r1, r2, r4, r5, r6, r7, lr}
 800140c:	4604      	mov	r4, r0
 800140e:	460e      	mov	r6, r1
 8001410:	4615      	mov	r5, r2
 8001412:	f3ef 8205 	mrs	r2, IPSR
 8001416:	b942      	cbnz	r2, 800142a <osSemaphoreNew+0x20>
 8001418:	b138      	cbz	r0, 800142a <osSemaphoreNew+0x20>
 800141a:	4288      	cmp	r0, r1
 800141c:	d305      	bcc.n	800142a <osSemaphoreNew+0x20>
 800141e:	b155      	cbz	r5, 8001436 <osSemaphoreNew+0x2c>
 8001420:	e9d5 3702 	ldrd	r3, r7, [r5, #8]
 8001424:	b12b      	cbz	r3, 8001432 <osSemaphoreNew+0x28>
 8001426:	2f4f      	cmp	r7, #79	@ 0x4f
 8001428:	d822      	bhi.n	8001470 <osSemaphoreNew+0x66>
 800142a:	2400      	movs	r4, #0
 800142c:	4620      	mov	r0, r4
 800142e:	b003      	add	sp, #12
 8001430:	bdf0      	pop	{r4, r5, r6, r7, pc}
 8001432:	2f00      	cmp	r7, #0
 8001434:	d1f9      	bne.n	800142a <osSemaphoreNew+0x20>
 8001436:	2c01      	cmp	r4, #1
 8001438:	d00c      	beq.n	8001454 <osSemaphoreNew+0x4a>
 800143a:	4620      	mov	r0, r4
 800143c:	4631      	mov	r1, r6
 800143e:	f000 fa11 	bl	8001864 <xQueueCreateCountingSemaphore>
 8001442:	4604      	mov	r4, r0
 8001444:	2800      	cmp	r0, #0
 8001446:	d0f0      	beq.n	800142a <osSemaphoreNew+0x20>
 8001448:	b985      	cbnz	r5, 800146c <osSemaphoreNew+0x62>
 800144a:	4629      	mov	r1, r5
 800144c:	4620      	mov	r0, r4
 800144e:	f000 fc25 	bl	8001c9c <vQueueAddToRegistry>
 8001452:	e7eb      	b.n	800142c <osSemaphoreNew+0x22>
 8001454:	2203      	movs	r2, #3
 8001456:	2100      	movs	r1, #0
 8001458:	2001      	movs	r0, #1
 800145a:	f000 f9ba 	bl	80017d2 <xQueueGenericCreate>
 800145e:	e00e      	b.n	800147e <osSemaphoreNew+0x74>
 8001460:	461a      	mov	r2, r3
 8001462:	f000 f9dd 	bl	8001820 <xQueueCreateCountingSemaphoreStatic>
 8001466:	4604      	mov	r4, r0
 8001468:	2800      	cmp	r0, #0
 800146a:	d0de      	beq.n	800142a <osSemaphoreNew+0x20>
 800146c:	682d      	ldr	r5, [r5, #0]
 800146e:	e7ec      	b.n	800144a <osSemaphoreNew+0x40>
 8001470:	2801      	cmp	r0, #1
 8001472:	d1f5      	bne.n	8001460 <osSemaphoreNew+0x56>
 8001474:	2103      	movs	r1, #3
 8001476:	9100      	str	r1, [sp, #0]
 8001478:	4611      	mov	r1, r2
 800147a:	f000 f95c 	bl	8001736 <xQueueGenericCreateStatic>
 800147e:	4604      	mov	r4, r0
 8001480:	2800      	cmp	r0, #0
 8001482:	d0d2      	beq.n	800142a <osSemaphoreNew+0x20>
 8001484:	2e00      	cmp	r6, #0
 8001486:	d0df      	beq.n	8001448 <osSemaphoreNew+0x3e>
 8001488:	2300      	movs	r3, #0
 800148a:	461a      	mov	r2, r3
 800148c:	4619      	mov	r1, r3
 800148e:	f000 fa07 	bl	80018a0 <xQueueGenericSend>
 8001492:	2801      	cmp	r0, #1
 8001494:	d0d8      	beq.n	8001448 <osSemaphoreNew+0x3e>
 8001496:	4620      	mov	r0, r4
 8001498:	f000 fc2a 	bl	8001cf0 <vQueueDelete>
 800149c:	e7c5      	b.n	800142a <osSemaphoreNew+0x20>

0800149e <osSemaphoreRelease>:
 800149e:	b507      	push	{r0, r1, r2, lr}
 80014a0:	b318      	cbz	r0, 80014ea <osSemaphoreRelease+0x4c>
 80014a2:	f3ef 8305 	mrs	r3, IPSR
 80014a6:	b1cb      	cbz	r3, 80014dc <osSemaphoreRelease+0x3e>
 80014a8:	2300      	movs	r3, #0
 80014aa:	a901      	add	r1, sp, #4
 80014ac:	9301      	str	r3, [sp, #4]
 80014ae:	f000 fb06 	bl	8001abe <xQueueGiveFromISR>
 80014b2:	2801      	cmp	r0, #1
 80014b4:	d004      	beq.n	80014c0 <osSemaphoreRelease+0x22>
 80014b6:	f06f 0002 	mvn.w	r0, #2
 80014ba:	b003      	add	sp, #12
 80014bc:	f85d fb04 	ldr.w	pc, [sp], #4
 80014c0:	9b01      	ldr	r3, [sp, #4]
 80014c2:	b14b      	cbz	r3, 80014d8 <osSemaphoreRelease+0x3a>
 80014c4:	f04f 23e0 	mov.w	r3, #3758153728	@ 0xe000e000
 80014c8:	f04f 5280 	mov.w	r2, #268435456	@ 0x10000000
 80014cc:	f8c3 2d04 	str.w	r2, [r3, #3332]	@ 0xd04
 80014d0:	f3bf 8f4f 	dsb	sy
 80014d4:	f3bf 8f6f 	isb	sy
 80014d8:	2000      	movs	r0, #0
 80014da:	e7ee      	b.n	80014ba <osSemaphoreRelease+0x1c>
 80014dc:	461a      	mov	r2, r3
 80014de:	4619      	mov	r1, r3
 80014e0:	f000 f9de 	bl	80018a0 <xQueueGenericSend>
 80014e4:	2801      	cmp	r0, #1
 80014e6:	d0f7      	beq.n	80014d8 <osSemaphoreRelease+0x3a>
 80014e8:	e7e5      	b.n	80014b6 <osSemaphoreRelease+0x18>
 80014ea:	f06f 0003 	mvn.w	r0, #3
 80014ee:	e7e4      	b.n	80014ba <osSemaphoreRelease+0x1c>

080014f0 <vApplicationGetIdleTaskMemory>:
 80014f0:	4b03      	ldr	r3, [pc, #12]	@ (8001500 <vApplicationGetIdleTaskMemory+0x10>)
 80014f2:	6003      	str	r3, [r0, #0]
 80014f4:	4b03      	ldr	r3, [pc, #12]	@ (8001504 <vApplicationGetIdleTaskMemory+0x14>)
 80014f6:	600b      	str	r3, [r1, #0]
 80014f8:	2380      	movs	r3, #128	@ 0x80
 80014fa:	6013      	str	r3, [r2, #0]
 80014fc:	4770      	bx	lr
 80014fe:	bf00      	nop
 8001500:	20000744 	.word	0x20000744
 8001504:	20000544 	.word	0x20000544

08001508 <vApplicationGetTimerTaskMemory>:
 8001508:	4b03      	ldr	r3, [pc, #12]	@ (8001518 <vApplicationGetTimerTaskMemory+0x10>)
 800150a:	6003      	str	r3, [r0, #0]
 800150c:	4b03      	ldr	r3, [pc, #12]	@ (800151c <vApplicationGetTimerTaskMemory+0x14>)
 800150e:	600b      	str	r3, [r1, #0]
 8001510:	f44f 7380 	mov.w	r3, #256	@ 0x100
 8001514:	6013      	str	r3, [r2, #0]
 8001516:	4770      	bx	lr
 8001518:	200004e8 	.word	0x200004e8
 800151c:	200000e8 	.word	0x200000e8

08001520 <vListInitialise>:
 8001520:	f100 0308 	add.w	r3, r0, #8
 8001524:	f04f 32ff 	mov.w	r2, #4294967295
 8001528:	e9c0 2302 	strd	r2, r3, [r0, #8]
 800152c:	6043      	str	r3, [r0, #4]
 800152e:	6103      	str	r3, [r0, #16]
 8001530:	2300      	movs	r3, #0
 8001532:	6003      	str	r3, [r0, #0]
 8001534:	4770      	bx	lr

08001536 <vListInitialiseItem>:
 8001536:	2300      	movs	r3, #0
 8001538:	6103      	str	r3, [r0, #16]
 800153a:	4770      	bx	lr

0800153c <vListInsertEnd>:
 800153c:	6843      	ldr	r3, [r0, #4]
 800153e:	604b      	str	r3, [r1, #4]
 8001540:	689a      	ldr	r2, [r3, #8]
 8001542:	608a      	str	r2, [r1, #8]
 8001544:	6051      	str	r1, [r2, #4]
 8001546:	6099      	str	r1, [r3, #8]
 8001548:	6803      	ldr	r3, [r0, #0]
 800154a:	6108      	str	r0, [r1, #16]
 800154c:	3301      	adds	r3, #1
 800154e:	6003      	str	r3, [r0, #0]
 8001550:	4770      	bx	lr

08001552 <vListInsert>:
 8001552:	b530      	push	{r4, r5, lr}
 8001554:	680c      	ldr	r4, [r1, #0]
 8001556:	1c63      	adds	r3, r4, #1
 8001558:	d10a      	bne.n	8001570 <vListInsert+0x1e>
 800155a:	6903      	ldr	r3, [r0, #16]
 800155c:	685a      	ldr	r2, [r3, #4]
 800155e:	604a      	str	r2, [r1, #4]
 8001560:	6091      	str	r1, [r2, #8]
 8001562:	608b      	str	r3, [r1, #8]
 8001564:	6059      	str	r1, [r3, #4]
 8001566:	6803      	ldr	r3, [r0, #0]
 8001568:	6108      	str	r0, [r1, #16]
 800156a:	3301      	adds	r3, #1
 800156c:	6003      	str	r3, [r0, #0]
 800156e:	bd30      	pop	{r4, r5, pc}
 8001570:	f100 0208 	add.w	r2, r0, #8
 8001574:	4613      	mov	r3, r2
 8001576:	6852      	ldr	r2, [r2, #4]
 8001578:	6815      	ldr	r5, [r2, #0]
 800157a:	42a5      	cmp	r5, r4
 800157c:	d9fa      	bls.n	8001574 <vListInsert+0x22>
 800157e:	e7ed      	b.n	800155c <vListInsert+0xa>

08001580 <uxListRemove>:
 8001580:	e9d0 1201 	ldrd	r1, r2, [r0, #4]
 8001584:	6903      	ldr	r3, [r0, #16]
 8001586:	608a      	str	r2, [r1, #8]
 8001588:	6051      	str	r1, [r2, #4]
 800158a:	6859      	ldr	r1, [r3, #4]
 800158c:	4281      	cmp	r1, r0
 800158e:	bf08      	it	eq
 8001590:	605a      	streq	r2, [r3, #4]
 8001592:	2200      	movs	r2, #0
 8001594:	6102      	str	r2, [r0, #16]
 8001596:	681a      	ldr	r2, [r3, #0]
 8001598:	3a01      	subs	r2, #1
 800159a:	601a      	str	r2, [r3, #0]
 800159c:	6818      	ldr	r0, [r3, #0]
 800159e:	4770      	bx	lr

080015a0 <prvIsQueueEmpty>:
 80015a0:	b510      	push	{r4, lr}
 80015a2:	4604      	mov	r4, r0
 80015a4:	f001 fac6 	bl	8002b34 <vPortEnterCritical>
 80015a8:	6ba4      	ldr	r4, [r4, #56]	@ 0x38
 80015aa:	f001 fae3 	bl	8002b74 <vPortExitCritical>
 80015ae:	fab4 f084 	clz	r0, r4
 80015b2:	0940      	lsrs	r0, r0, #5
 80015b4:	bd10      	pop	{r4, pc}

080015b6 <prvCopyDataToQueue>:
 80015b6:	b570      	push	{r4, r5, r6, lr}
 80015b8:	4616      	mov	r6, r2
 80015ba:	6c02      	ldr	r2, [r0, #64]	@ 0x40
 80015bc:	6b85      	ldr	r5, [r0, #56]	@ 0x38
 80015be:	4604      	mov	r4, r0
 80015c0:	b942      	cbnz	r2, 80015d4 <prvCopyDataToQueue+0x1e>
 80015c2:	6806      	ldr	r6, [r0, #0]
 80015c4:	b99e      	cbnz	r6, 80015ee <prvCopyDataToQueue+0x38>
 80015c6:	6880      	ldr	r0, [r0, #8]
 80015c8:	f001 f824 	bl	8002614 <xTaskPriorityDisinherit>
 80015cc:	60a6      	str	r6, [r4, #8]
 80015ce:	3501      	adds	r5, #1
 80015d0:	63a5      	str	r5, [r4, #56]	@ 0x38
 80015d2:	bd70      	pop	{r4, r5, r6, pc}
 80015d4:	b96e      	cbnz	r6, 80015f2 <prvCopyDataToQueue+0x3c>
 80015d6:	6840      	ldr	r0, [r0, #4]
 80015d8:	f001 ff5b 	bl	8003492 <memcpy>
 80015dc:	6863      	ldr	r3, [r4, #4]
 80015de:	6c22      	ldr	r2, [r4, #64]	@ 0x40
 80015e0:	4413      	add	r3, r2
 80015e2:	68a2      	ldr	r2, [r4, #8]
 80015e4:	6063      	str	r3, [r4, #4]
 80015e6:	4293      	cmp	r3, r2
 80015e8:	bf24      	itt	cs
 80015ea:	6823      	ldrcs	r3, [r4, #0]
 80015ec:	6063      	strcs	r3, [r4, #4]
 80015ee:	2000      	movs	r0, #0
 80015f0:	e7ed      	b.n	80015ce <prvCopyDataToQueue+0x18>
 80015f2:	68c0      	ldr	r0, [r0, #12]
 80015f4:	f001 ff4d 	bl	8003492 <memcpy>
 80015f8:	6c22      	ldr	r2, [r4, #64]	@ 0x40
 80015fa:	68e3      	ldr	r3, [r4, #12]
 80015fc:	4251      	negs	r1, r2
 80015fe:	1a9b      	subs	r3, r3, r2
 8001600:	6822      	ldr	r2, [r4, #0]
 8001602:	60e3      	str	r3, [r4, #12]
 8001604:	4293      	cmp	r3, r2
 8001606:	bf3e      	ittt	cc
 8001608:	68a3      	ldrcc	r3, [r4, #8]
 800160a:	185b      	addcc	r3, r3, r1
 800160c:	60e3      	strcc	r3, [r4, #12]
 800160e:	2e02      	cmp	r6, #2
 8001610:	d1ed      	bne.n	80015ee <prvCopyDataToQueue+0x38>
 8001612:	b10d      	cbz	r5, 8001618 <prvCopyDataToQueue+0x62>
 8001614:	3d01      	subs	r5, #1
 8001616:	e7ea      	b.n	80015ee <prvCopyDataToQueue+0x38>
 8001618:	4628      	mov	r0, r5
 800161a:	e7d8      	b.n	80015ce <prvCopyDataToQueue+0x18>

0800161c <prvCopyDataFromQueue>:
 800161c:	4603      	mov	r3, r0
 800161e:	b410      	push	{r4}
 8001620:	6c1a      	ldr	r2, [r3, #64]	@ 0x40
 8001622:	4608      	mov	r0, r1
 8001624:	b16a      	cbz	r2, 8001642 <prvCopyDataFromQueue+0x26>
 8001626:	68dc      	ldr	r4, [r3, #12]
 8001628:	6899      	ldr	r1, [r3, #8]
 800162a:	4414      	add	r4, r2
 800162c:	428c      	cmp	r4, r1
 800162e:	bf28      	it	cs
 8001630:	6819      	ldrcs	r1, [r3, #0]
 8001632:	60dc      	str	r4, [r3, #12]
 8001634:	bf28      	it	cs
 8001636:	60d9      	strcs	r1, [r3, #12]
 8001638:	68d9      	ldr	r1, [r3, #12]
 800163a:	f85d 4b04 	ldr.w	r4, [sp], #4
 800163e:	f001 bf28 	b.w	8003492 <memcpy>
 8001642:	f85d 4b04 	ldr.w	r4, [sp], #4
 8001646:	4770      	bx	lr

08001648 <prvUnlockQueue>:
 8001648:	b570      	push	{r4, r5, r6, lr}
 800164a:	4604      	mov	r4, r0
 800164c:	f001 fa72 	bl	8002b34 <vPortEnterCritical>
 8001650:	f894 5045 	ldrb.w	r5, [r4, #69]	@ 0x45
 8001654:	f104 0624 	add.w	r6, r4, #36	@ 0x24
 8001658:	b26d      	sxtb	r5, r5
 800165a:	2d00      	cmp	r5, #0
 800165c:	dc14      	bgt.n	8001688 <prvUnlockQueue+0x40>
 800165e:	23ff      	movs	r3, #255	@ 0xff
 8001660:	f884 3045 	strb.w	r3, [r4, #69]	@ 0x45
 8001664:	f001 fa86 	bl	8002b74 <vPortExitCritical>
 8001668:	f001 fa64 	bl	8002b34 <vPortEnterCritical>
 800166c:	f894 5044 	ldrb.w	r5, [r4, #68]	@ 0x44
 8001670:	f104 0610 	add.w	r6, r4, #16
 8001674:	b26d      	sxtb	r5, r5
 8001676:	2d00      	cmp	r5, #0
 8001678:	dc12      	bgt.n	80016a0 <prvUnlockQueue+0x58>
 800167a:	23ff      	movs	r3, #255	@ 0xff
 800167c:	f884 3044 	strb.w	r3, [r4, #68]	@ 0x44
 8001680:	e8bd 4070 	ldmia.w	sp!, {r4, r5, r6, lr}
 8001684:	f001 ba76 	b.w	8002b74 <vPortExitCritical>
 8001688:	6a63      	ldr	r3, [r4, #36]	@ 0x24
 800168a:	2b00      	cmp	r3, #0
 800168c:	d0e7      	beq.n	800165e <prvUnlockQueue+0x16>
 800168e:	4630      	mov	r0, r6
 8001690:	f000 ff22 	bl	80024d8 <xTaskRemoveFromEventList>
 8001694:	b108      	cbz	r0, 800169a <prvUnlockQueue+0x52>
 8001696:	f000 ffa7 	bl	80025e8 <vTaskMissedYield>
 800169a:	3d01      	subs	r5, #1
 800169c:	b26d      	sxtb	r5, r5
 800169e:	e7dc      	b.n	800165a <prvUnlockQueue+0x12>
 80016a0:	6923      	ldr	r3, [r4, #16]
 80016a2:	2b00      	cmp	r3, #0
 80016a4:	d0e9      	beq.n	800167a <prvUnlockQueue+0x32>
 80016a6:	4630      	mov	r0, r6
 80016a8:	f000 ff16 	bl	80024d8 <xTaskRemoveFromEventList>
 80016ac:	b108      	cbz	r0, 80016b2 <prvUnlockQueue+0x6a>
 80016ae:	f000 ff9b 	bl	80025e8 <vTaskMissedYield>
 80016b2:	3d01      	subs	r5, #1
 80016b4:	b26d      	sxtb	r5, r5
 80016b6:	e7de      	b.n	8001676 <prvUnlockQueue+0x2e>

080016b8 <xQueueGenericReset>:
 80016b8:	b538      	push	{r3, r4, r5, lr}
 80016ba:	460d      	mov	r5, r1
 80016bc:	4604      	mov	r4, r0
 80016be:	b940      	cbnz	r0, 80016d2 <xQueueGenericReset+0x1a>
 80016c0:	f04f 0350 	mov.w	r3, #80	@ 0x50
 80016c4:	f383 8811 	msr	BASEPRI, r3
 80016c8:	f3bf 8f6f 	isb	sy
 80016cc:	f3bf 8f4f 	dsb	sy
 80016d0:	e7fe      	b.n	80016d0 <xQueueGenericReset+0x18>
 80016d2:	f001 fa2f 	bl	8002b34 <vPortEnterCritical>
 80016d6:	e9d4 310f 	ldrd	r3, r1, [r4, #60]	@ 0x3c
 80016da:	6822      	ldr	r2, [r4, #0]
 80016dc:	6062      	str	r2, [r4, #4]
 80016de:	434b      	muls	r3, r1
 80016e0:	18d0      	adds	r0, r2, r3
 80016e2:	1a5b      	subs	r3, r3, r1
 80016e4:	441a      	add	r2, r3
 80016e6:	60a0      	str	r0, [r4, #8]
 80016e8:	23ff      	movs	r3, #255	@ 0xff
 80016ea:	2000      	movs	r0, #0
 80016ec:	63a0      	str	r0, [r4, #56]	@ 0x38
 80016ee:	60e2      	str	r2, [r4, #12]
 80016f0:	f884 3044 	strb.w	r3, [r4, #68]	@ 0x44
 80016f4:	f884 3045 	strb.w	r3, [r4, #69]	@ 0x45
 80016f8:	b9a5      	cbnz	r5, 8001724 <xQueueGenericReset+0x6c>
 80016fa:	6923      	ldr	r3, [r4, #16]
 80016fc:	b173      	cbz	r3, 800171c <xQueueGenericReset+0x64>
 80016fe:	f104 0010 	add.w	r0, r4, #16
 8001702:	f000 fee9 	bl	80024d8 <xTaskRemoveFromEventList>
 8001706:	b148      	cbz	r0, 800171c <xQueueGenericReset+0x64>
 8001708:	f04f 23e0 	mov.w	r3, #3758153728	@ 0xe000e000
 800170c:	f04f 5280 	mov.w	r2, #268435456	@ 0x10000000
 8001710:	f8c3 2d04 	str.w	r2, [r3, #3332]	@ 0xd04
 8001714:	f3bf 8f4f 	dsb	sy
 8001718:	f3bf 8f6f 	isb	sy
 800171c:	f001 fa2a 	bl	8002b74 <vPortExitCritical>
 8001720:	2001      	movs	r0, #1
 8001722:	bd38      	pop	{r3, r4, r5, pc}
 8001724:	f104 0010 	add.w	r0, r4, #16
 8001728:	f7ff fefa 	bl	8001520 <vListInitialise>
 800172c:	f104 0024 	add.w	r0, r4, #36	@ 0x24
 8001730:	f7ff fef6 	bl	8001520 <vListInitialise>
 8001734:	e7f2      	b.n	800171c <xQueueGenericReset+0x64>

08001736 <xQueueGenericCreateStatic>:
 8001736:	b537      	push	{r0, r1, r2, r4, r5, lr}
 8001738:	460d      	mov	r5, r1
 800173a:	461c      	mov	r4, r3
 800173c:	b940      	cbnz	r0, 8001750 <xQueueGenericCreateStatic+0x1a>
 800173e:	f04f 0350 	mov.w	r3, #80	@ 0x50
 8001742:	f383 8811 	msr	BASEPRI, r3
 8001746:	f3bf 8f6f 	isb	sy
 800174a:	f3bf 8f4f 	dsb	sy
 800174e:	e7fe      	b.n	800174e <xQueueGenericCreateStatic+0x18>
 8001750:	b943      	cbnz	r3, 8001764 <xQueueGenericCreateStatic+0x2e>
 8001752:	f04f 0350 	mov.w	r3, #80	@ 0x50
 8001756:	f383 8811 	msr	BASEPRI, r3
 800175a:	f3bf 8f6f 	isb	sy
 800175e:	f3bf 8f4f 	dsb	sy
 8001762:	e7fe      	b.n	8001762 <xQueueGenericCreateStatic+0x2c>
 8001764:	b14a      	cbz	r2, 800177a <xQueueGenericCreateStatic+0x44>
 8001766:	b991      	cbnz	r1, 800178e <xQueueGenericCreateStatic+0x58>
 8001768:	f04f 0350 	mov.w	r3, #80	@ 0x50
 800176c:	f383 8811 	msr	BASEPRI, r3
 8001770:	f3bf 8f6f 	isb	sy
 8001774:	f3bf 8f4f 	dsb	sy
 8001778:	e7fe      	b.n	8001778 <xQueueGenericCreateStatic+0x42>
 800177a:	b141      	cbz	r1, 800178e <xQueueGenericCreateStatic+0x58>
 800177c:	f04f 0350 	mov.w	r3, #80	@ 0x50
 8001780:	f383 8811 	msr	BASEPRI, r3
 8001784:	f3bf 8f6f 	isb	sy
 8001788:	f3bf 8f4f 	dsb	sy
 800178c:	e7fe      	b.n	800178c <xQueueGenericCreateStatic+0x56>
 800178e:	2350      	movs	r3, #80	@ 0x50
 8001790:	9301      	str	r3, [sp, #4]
 8001792:	9b01      	ldr	r3, [sp, #4]
 8001794:	2b50      	cmp	r3, #80	@ 0x50
 8001796:	d008      	beq.n	80017aa <xQueueGenericCreateStatic+0x74>
 8001798:	f04f 0350 	mov.w	r3, #80	@ 0x50
 800179c:	f383 8811 	msr	BASEPRI, r3
 80017a0:	f3bf 8f6f 	isb	sy
 80017a4:	f3bf 8f4f 	dsb	sy
 80017a8:	e7fe      	b.n	80017a8 <xQueueGenericCreateStatic+0x72>
 80017aa:	2101      	movs	r1, #1
 80017ac:	2d00      	cmp	r5, #0
 80017ae:	bf08      	it	eq
 80017b0:	4622      	moveq	r2, r4
 80017b2:	e9c4 050f 	strd	r0, r5, [r4, #60]	@ 0x3c
 80017b6:	f884 1046 	strb.w	r1, [r4, #70]	@ 0x46
 80017ba:	6022      	str	r2, [r4, #0]
 80017bc:	4620      	mov	r0, r4
 80017be:	9b01      	ldr	r3, [sp, #4]
 80017c0:	f7ff ff7a 	bl	80016b8 <xQueueGenericReset>
 80017c4:	f89d 3018 	ldrb.w	r3, [sp, #24]
 80017c8:	f884 304c 	strb.w	r3, [r4, #76]	@ 0x4c
 80017cc:	4620      	mov	r0, r4
 80017ce:	b003      	add	sp, #12
 80017d0:	bd30      	pop	{r4, r5, pc}

080017d2 <xQueueGenericCreate>:
 80017d2:	b5f8      	push	{r3, r4, r5, r6, r7, lr}
 80017d4:	460d      	mov	r5, r1
 80017d6:	4617      	mov	r7, r2
 80017d8:	4606      	mov	r6, r0
 80017da:	b940      	cbnz	r0, 80017ee <xQueueGenericCreate+0x1c>
 80017dc:	f04f 0350 	mov.w	r3, #80	@ 0x50
 80017e0:	f383 8811 	msr	BASEPRI, r3
 80017e4:	f3bf 8f6f 	isb	sy
 80017e8:	f3bf 8f4f 	dsb	sy
 80017ec:	e7fe      	b.n	80017ec <xQueueGenericCreate+0x1a>
 80017ee:	4348      	muls	r0, r1
 80017f0:	3050      	adds	r0, #80	@ 0x50
 80017f2:	f001 fb05 	bl	8002e00 <pvPortMalloc>
 80017f6:	4604      	mov	r4, r0
 80017f8:	b170      	cbz	r0, 8001818 <xQueueGenericCreate+0x46>
 80017fa:	2300      	movs	r3, #0
 80017fc:	f880 3046 	strb.w	r3, [r0, #70]	@ 0x46
 8001800:	b165      	cbz	r5, 800181c <xQueueGenericCreate+0x4a>
 8001802:	f100 0350 	add.w	r3, r0, #80	@ 0x50
 8001806:	e9c4 650f 	strd	r6, r5, [r4, #60]	@ 0x3c
 800180a:	6023      	str	r3, [r4, #0]
 800180c:	2101      	movs	r1, #1
 800180e:	4620      	mov	r0, r4
 8001810:	f7ff ff52 	bl	80016b8 <xQueueGenericReset>
 8001814:	f884 704c 	strb.w	r7, [r4, #76]	@ 0x4c
 8001818:	4620      	mov	r0, r4
 800181a:	bdf8      	pop	{r3, r4, r5, r6, r7, pc}
 800181c:	4603      	mov	r3, r0
 800181e:	e7f2      	b.n	8001806 <xQueueGenericCreate+0x34>

08001820 <xQueueCreateCountingSemaphoreStatic>:
 8001820:	b513      	push	{r0, r1, r4, lr}
 8001822:	4613      	mov	r3, r2
 8001824:	460c      	mov	r4, r1
 8001826:	b940      	cbnz	r0, 800183a <xQueueCreateCountingSemaphoreStatic+0x1a>
 8001828:	f04f 0350 	mov.w	r3, #80	@ 0x50
 800182c:	f383 8811 	msr	BASEPRI, r3
 8001830:	f3bf 8f6f 	isb	sy
 8001834:	f3bf 8f4f 	dsb	sy
 8001838:	e7fe      	b.n	8001838 <xQueueCreateCountingSemaphoreStatic+0x18>
 800183a:	4288      	cmp	r0, r1
 800183c:	d208      	bcs.n	8001850 <xQueueCreateCountingSemaphoreStatic+0x30>
 800183e:	f04f 0350 	mov.w	r3, #80	@ 0x50
 8001842:	f383 8811 	msr	BASEPRI, r3
 8001846:	f3bf 8f6f 	isb	sy
 800184a:	f3bf 8f4f 	dsb	sy
 800184e:	e7fe      	b.n	800184e <xQueueCreateCountingSemaphoreStatic+0x2e>
 8001850:	2202      	movs	r2, #2
 8001852:	9200      	str	r2, [sp, #0]
 8001854:	2200      	movs	r2, #0
 8001856:	4611      	mov	r1, r2
 8001858:	f7ff ff6d 	bl	8001736 <xQueueGenericCreateStatic>
 800185c:	b100      	cbz	r0, 8001860 <xQueueCreateCountingSemaphoreStatic+0x40>
 800185e:	6384      	str	r4, [r0, #56]	@ 0x38
 8001860:	b002      	add	sp, #8
 8001862:	bd10      	pop	{r4, pc}

08001864 <xQueueCreateCountingSemaphore>:
 8001864:	b510      	push	{r4, lr}
 8001866:	460c      	mov	r4, r1
 8001868:	b940      	cbnz	r0, 800187c <xQueueCreateCountingSemaphore+0x18>
 800186a:	f04f 0350 	mov.w	r3, #80	@ 0x50
 800186e:	f383 8811 	msr	BASEPRI, r3
 8001872:	f3bf 8f6f 	isb	sy
 8001876:	f3bf 8f4f 	dsb	sy
 800187a:	e7fe      	b.n	800187a <xQueueCreateCountingSemaphore+0x16>
 800187c:	4288      	cmp	r0, r1
 800187e:	d208      	bcs.n	8001892 <xQueueCreateCountingSemaphore+0x2e>
 8001880:	f04f 0350 	mov.w	r3, #80	@ 0x50
 8001884:	f383 8811 	msr	BASEPRI, r3
 8001888:	f3bf 8f6f 	isb	sy
 800188c:	f3bf 8f4f 	dsb	sy
 8001890:	e7fe      	b.n	8001890 <xQueueCreateCountingSemaphore+0x2c>
 8001892:	2202      	movs	r2, #2
 8001894:	2100      	movs	r1, #0
 8001896:	f7ff ff9c 	bl	80017d2 <xQueueGenericCreate>
 800189a:	b100      	cbz	r0, 800189e <xQueueCreateCountingSemaphore+0x3a>
 800189c:	6384      	str	r4, [r0, #56]	@ 0x38
 800189e:	bd10      	pop	{r4, pc}

080018a0 <xQueueGenericSend>:
 80018a0:	e92d 41ff 	stmdb	sp!, {r0, r1, r2, r3, r4, r5, r6, r7, r8, lr}
 80018a4:	460f      	mov	r7, r1
 80018a6:	9201      	str	r2, [sp, #4]
 80018a8:	461e      	mov	r6, r3
 80018aa:	4604      	mov	r4, r0
 80018ac:	b940      	cbnz	r0, 80018c0 <xQueueGenericSend+0x20>
 80018ae:	f04f 0350 	mov.w	r3, #80	@ 0x50
 80018b2:	f383 8811 	msr	BASEPRI, r3
 80018b6:	f3bf 8f6f 	isb	sy
 80018ba:	f3bf 8f4f 	dsb	sy
 80018be:	e7fe      	b.n	80018be <xQueueGenericSend+0x1e>
 80018c0:	b951      	cbnz	r1, 80018d8 <xQueueGenericSend+0x38>
 80018c2:	6c03      	ldr	r3, [r0, #64]	@ 0x40
 80018c4:	b143      	cbz	r3, 80018d8 <xQueueGenericSend+0x38>
 80018c6:	f04f 0350 	mov.w	r3, #80	@ 0x50
 80018ca:	f383 8811 	msr	BASEPRI, r3
 80018ce:	f3bf 8f6f 	isb	sy
 80018d2:	f3bf 8f4f 	dsb	sy
 80018d6:	e7fe      	b.n	80018d6 <xQueueGenericSend+0x36>
 80018d8:	2e02      	cmp	r6, #2
 80018da:	d10b      	bne.n	80018f4 <xQueueGenericSend+0x54>
 80018dc:	6be3      	ldr	r3, [r4, #60]	@ 0x3c
 80018de:	2b01      	cmp	r3, #1
 80018e0:	d008      	beq.n	80018f4 <xQueueGenericSend+0x54>
 80018e2:	f04f 0350 	mov.w	r3, #80	@ 0x50
 80018e6:	f383 8811 	msr	BASEPRI, r3
 80018ea:	f3bf 8f6f 	isb	sy
 80018ee:	f3bf 8f4f 	dsb	sy
 80018f2:	e7fe      	b.n	80018f2 <xQueueGenericSend+0x52>
 80018f4:	f000 fe7e 	bl	80025f4 <xTaskGetSchedulerState>
 80018f8:	4605      	mov	r5, r0
 80018fa:	b330      	cbz	r0, 800194a <xQueueGenericSend+0xaa>
 80018fc:	2500      	movs	r5, #0
 80018fe:	f04f 0800 	mov.w	r8, #0
 8001902:	f001 f917 	bl	8002b34 <vPortEnterCritical>
 8001906:	6ba2      	ldr	r2, [r4, #56]	@ 0x38
 8001908:	6be3      	ldr	r3, [r4, #60]	@ 0x3c
 800190a:	429a      	cmp	r2, r3
 800190c:	d301      	bcc.n	8001912 <xQueueGenericSend+0x72>
 800190e:	2e02      	cmp	r6, #2
 8001910:	d127      	bne.n	8001962 <xQueueGenericSend+0xc2>
 8001912:	4632      	mov	r2, r6
 8001914:	4639      	mov	r1, r7
 8001916:	4620      	mov	r0, r4
 8001918:	f7ff fe4d 	bl	80015b6 <prvCopyDataToQueue>
 800191c:	6a63      	ldr	r3, [r4, #36]	@ 0x24
 800191e:	b11b      	cbz	r3, 8001928 <xQueueGenericSend+0x88>
 8001920:	f104 0024 	add.w	r0, r4, #36	@ 0x24
 8001924:	f000 fdd8 	bl	80024d8 <xTaskRemoveFromEventList>
 8001928:	b148      	cbz	r0, 800193e <xQueueGenericSend+0x9e>
 800192a:	f04f 23e0 	mov.w	r3, #3758153728	@ 0xe000e000
 800192e:	f04f 5280 	mov.w	r2, #268435456	@ 0x10000000
 8001932:	f8c3 2d04 	str.w	r2, [r3, #3332]	@ 0xd04
 8001936:	f3bf 8f4f 	dsb	sy
 800193a:	f3bf 8f6f 	isb	sy
 800193e:	f001 f919 	bl	8002b74 <vPortExitCritical>
 8001942:	2001      	movs	r0, #1
 8001944:	b004      	add	sp, #16
 8001946:	e8bd 81f0 	ldmia.w	sp!, {r4, r5, r6, r7, r8, pc}
 800194a:	9b01      	ldr	r3, [sp, #4]
 800194c:	2b00      	cmp	r3, #0
 800194e:	d0d6      	beq.n	80018fe <xQueueGenericSend+0x5e>
 8001950:	f04f 0350 	mov.w	r3, #80	@ 0x50
 8001954:	f383 8811 	msr	BASEPRI, r3
 8001958:	f3bf 8f6f 	isb	sy
 800195c:	f3bf 8f4f 	dsb	sy
 8001960:	e7fe      	b.n	8001960 <xQueueGenericSend+0xc0>
 8001962:	9b01      	ldr	r3, [sp, #4]
 8001964:	b91b      	cbnz	r3, 800196e <xQueueGenericSend+0xce>
 8001966:	f001 f905 	bl	8002b74 <vPortExitCritical>
 800196a:	2000      	movs	r0, #0
 800196c:	e7ea      	b.n	8001944 <xQueueGenericSend+0xa4>
 800196e:	b915      	cbnz	r5, 8001976 <xQueueGenericSend+0xd6>
 8001970:	a802      	add	r0, sp, #8
 8001972:	f000 fdf1 	bl	8002558 <vTaskInternalSetTimeOutState>
 8001976:	f001 f8fd 	bl	8002b74 <vPortExitCritical>
 800197a:	f000 fbff 	bl	800217c <vTaskSuspendAll>
 800197e:	f001 f8d9 	bl	8002b34 <vPortEnterCritical>
 8001982:	f894 3044 	ldrb.w	r3, [r4, #68]	@ 0x44
 8001986:	2bff      	cmp	r3, #255	@ 0xff
 8001988:	bf08      	it	eq
 800198a:	f884 8044 	strbeq.w	r8, [r4, #68]	@ 0x44
 800198e:	f894 3045 	ldrb.w	r3, [r4, #69]	@ 0x45
 8001992:	2bff      	cmp	r3, #255	@ 0xff
 8001994:	bf08      	it	eq
 8001996:	f884 8045 	strbeq.w	r8, [r4, #69]	@ 0x45
 800199a:	f001 f8eb 	bl	8002b74 <vPortExitCritical>
 800199e:	a901      	add	r1, sp, #4
 80019a0:	a802      	add	r0, sp, #8
 80019a2:	f000 fde5 	bl	8002570 <xTaskCheckForTimeOut>
 80019a6:	bb38      	cbnz	r0, 80019f8 <xQueueGenericSend+0x158>
 80019a8:	f001 f8c4 	bl	8002b34 <vPortEnterCritical>
 80019ac:	6ba2      	ldr	r2, [r4, #56]	@ 0x38
 80019ae:	6be3      	ldr	r3, [r4, #60]	@ 0x3c
 80019b0:	429a      	cmp	r2, r3
 80019b2:	d10e      	bne.n	80019d2 <xQueueGenericSend+0x132>
 80019b4:	f001 f8de 	bl	8002b74 <vPortExitCritical>
 80019b8:	9901      	ldr	r1, [sp, #4]
 80019ba:	f104 0010 	add.w	r0, r4, #16
 80019be:	f000 fd53 	bl	8002468 <vTaskPlaceOnEventList>
 80019c2:	4620      	mov	r0, r4
 80019c4:	f7ff fe40 	bl	8001648 <prvUnlockQueue>
 80019c8:	f000 fc7c 	bl	80022c4 <xTaskResumeAll>
 80019cc:	b148      	cbz	r0, 80019e2 <xQueueGenericSend+0x142>
 80019ce:	2501      	movs	r5, #1
 80019d0:	e797      	b.n	8001902 <xQueueGenericSend+0x62>
 80019d2:	f001 f8cf 	bl	8002b74 <vPortExitCritical>
 80019d6:	4620      	mov	r0, r4
 80019d8:	f7ff fe36 	bl	8001648 <prvUnlockQueue>
 80019dc:	f000 fc72 	bl	80022c4 <xTaskResumeAll>
 80019e0:	e7f5      	b.n	80019ce <xQueueGenericSend+0x12e>
 80019e2:	f04f 23e0 	mov.w	r3, #3758153728	@ 0xe000e000
 80019e6:	f04f 5280 	mov.w	r2, #268435456	@ 0x10000000
 80019ea:	f8c3 2d04 	str.w	r2, [r3, #3332]	@ 0xd04
 80019ee:	f3bf 8f4f 	dsb	sy
 80019f2:	f3bf 8f6f 	isb	sy
 80019f6:	e7ea      	b.n	80019ce <xQueueGenericSend+0x12e>
 80019f8:	4620      	mov	r0, r4
 80019fa:	f7ff fe25 	bl	8001648 <prvUnlockQueue>
 80019fe:	f000 fc61 	bl	80022c4 <xTaskResumeAll>
 8001a02:	e7b2      	b.n	800196a <xQueueGenericSend+0xca>

08001a04 <xQueueGenericSendFromISR>:
 8001a04:	e92d 43f8 	stmdb	sp!, {r3, r4, r5, r6, r7, r8, r9, lr}
 8001a08:	4689      	mov	r9, r1
 8001a0a:	4617      	mov	r7, r2
 8001a0c:	461e      	mov	r6, r3
 8001a0e:	4604      	mov	r4, r0
 8001a10:	b940      	cbnz	r0, 8001a24 <xQueueGenericSendFromISR+0x20>
 8001a12:	f04f 0350 	mov.w	r3, #80	@ 0x50
 8001a16:	f383 8811 	msr	BASEPRI, r3
 8001a1a:	f3bf 8f6f 	isb	sy
 8001a1e:	f3bf 8f4f 	dsb	sy
 8001a22:	e7fe      	b.n	8001a22 <xQueueGenericSendFromISR+0x1e>
 8001a24:	b951      	cbnz	r1, 8001a3c <xQueueGenericSendFromISR+0x38>
 8001a26:	6c03      	ldr	r3, [r0, #64]	@ 0x40
 8001a28:	b143      	cbz	r3, 8001a3c <xQueueGenericSendFromISR+0x38>
 8001a2a:	f04f 0350 	mov.w	r3, #80	@ 0x50
 8001a2e:	f383 8811 	msr	BASEPRI, r3
 8001a32:	f3bf 8f6f 	isb	sy
 8001a36:	f3bf 8f4f 	dsb	sy
 8001a3a:	e7fe      	b.n	8001a3a <xQueueGenericSendFromISR+0x36>
 8001a3c:	2e02      	cmp	r6, #2
 8001a3e:	d10b      	bne.n	8001a58 <xQueueGenericSendFromISR+0x54>
 8001a40:	6be3      	ldr	r3, [r4, #60]	@ 0x3c
 8001a42:	2b01      	cmp	r3, #1
 8001a44:	d008      	beq.n	8001a58 <xQueueGenericSendFromISR+0x54>
 8001a46:	f04f 0350 	mov.w	r3, #80	@ 0x50
 8001a4a:	f383 8811 	msr	BASEPRI, r3
 8001a4e:	f3bf 8f6f 	isb	sy
 8001a52:	f3bf 8f4f 	dsb	sy
 8001a56:	e7fe      	b.n	8001a56 <xQueueGenericSendFromISR+0x52>
 8001a58:	f001 f97e 	bl	8002d58 <vPortValidateInterruptPriority>
 8001a5c:	f3ef 8811 	mrs	r8, BASEPRI
 8001a60:	f04f 0350 	mov.w	r3, #80	@ 0x50
 8001a64:	f383 8811 	msr	BASEPRI, r3
 8001a68:	f3bf 8f6f 	isb	sy
 8001a6c:	f3bf 8f4f 	dsb	sy
 8001a70:	6ba2      	ldr	r2, [r4, #56]	@ 0x38
 8001a72:	6be3      	ldr	r3, [r4, #60]	@ 0x3c
 8001a74:	429a      	cmp	r2, r3
 8001a76:	d301      	bcc.n	8001a7c <xQueueGenericSendFromISR+0x78>
 8001a78:	2e02      	cmp	r6, #2
 8001a7a:	d11e      	bne.n	8001aba <xQueueGenericSendFromISR+0xb6>
 8001a7c:	f894 5045 	ldrb.w	r5, [r4, #69]	@ 0x45
 8001a80:	6ba3      	ldr	r3, [r4, #56]	@ 0x38
 8001a82:	b26d      	sxtb	r5, r5
 8001a84:	4632      	mov	r2, r6
 8001a86:	4649      	mov	r1, r9
 8001a88:	4620      	mov	r0, r4
 8001a8a:	f7ff fd94 	bl	80015b6 <prvCopyDataToQueue>
 8001a8e:	1c6b      	adds	r3, r5, #1
 8001a90:	d10e      	bne.n	8001ab0 <xQueueGenericSendFromISR+0xac>
 8001a92:	6a63      	ldr	r3, [r4, #36]	@ 0x24
 8001a94:	b13b      	cbz	r3, 8001aa6 <xQueueGenericSendFromISR+0xa2>
 8001a96:	f104 0024 	add.w	r0, r4, #36	@ 0x24
 8001a9a:	f000 fd1d 	bl	80024d8 <xTaskRemoveFromEventList>
 8001a9e:	b110      	cbz	r0, 8001aa6 <xQueueGenericSendFromISR+0xa2>
 8001aa0:	b10f      	cbz	r7, 8001aa6 <xQueueGenericSendFromISR+0xa2>
 8001aa2:	2301      	movs	r3, #1
 8001aa4:	603b      	str	r3, [r7, #0]
 8001aa6:	2001      	movs	r0, #1
 8001aa8:	f388 8811 	msr	BASEPRI, r8
 8001aac:	e8bd 83f8 	ldmia.w	sp!, {r3, r4, r5, r6, r7, r8, r9, pc}
 8001ab0:	3501      	adds	r5, #1
 8001ab2:	b26d      	sxtb	r5, r5
 8001ab4:	f884 5045 	strb.w	r5, [r4, #69]	@ 0x45
 8001ab8:	e7f5      	b.n	8001aa6 <xQueueGenericSendFromISR+0xa2>
 8001aba:	2000      	movs	r0, #0
 8001abc:	e7f4      	b.n	8001aa8 <xQueueGenericSendFromISR+0xa4>

08001abe <xQueueGiveFromISR>:
 8001abe:	b570      	push	{r4, r5, r6, lr}
 8001ac0:	460d      	mov	r5, r1
 8001ac2:	4604      	mov	r4, r0
 8001ac4:	b940      	cbnz	r0, 8001ad8 <xQueueGiveFromISR+0x1a>
 8001ac6:	f04f 0350 	mov.w	r3, #80	@ 0x50
 8001aca:	f383 8811 	msr	BASEPRI, r3
 8001ace:	f3bf 8f6f 	isb	sy
 8001ad2:	f3bf 8f4f 	dsb	sy
 8001ad6:	e7fe      	b.n	8001ad6 <xQueueGiveFromISR+0x18>
 8001ad8:	6c03      	ldr	r3, [r0, #64]	@ 0x40
 8001ada:	b143      	cbz	r3, 8001aee <xQueueGiveFromISR+0x30>
 8001adc:	f04f 0350 	mov.w	r3, #80	@ 0x50
 8001ae0:	f383 8811 	msr	BASEPRI, r3
 8001ae4:	f3bf 8f6f 	isb	sy
 8001ae8:	f3bf 8f4f 	dsb	sy
 8001aec:	e7fe      	b.n	8001aec <xQueueGiveFromISR+0x2e>
 8001aee:	6803      	ldr	r3, [r0, #0]
 8001af0:	b953      	cbnz	r3, 8001b08 <xQueueGiveFromISR+0x4a>
 8001af2:	6883      	ldr	r3, [r0, #8]
 8001af4:	b143      	cbz	r3, 8001b08 <xQueueGiveFromISR+0x4a>
 8001af6:	f04f 0350 	mov.w	r3, #80	@ 0x50
 8001afa:	f383 8811 	msr	BASEPRI, r3
 8001afe:	f3bf 8f6f 	isb	sy
 8001b02:	f3bf 8f4f 	dsb	sy
 8001b06:	e7fe      	b.n	8001b06 <xQueueGiveFromISR+0x48>
 8001b08:	f001 f926 	bl	8002d58 <vPortValidateInterruptPriority>
 8001b0c:	f3ef 8611 	mrs	r6, BASEPRI
 8001b10:	f04f 0350 	mov.w	r3, #80	@ 0x50
 8001b14:	f383 8811 	msr	BASEPRI, r3
 8001b18:	f3bf 8f6f 	isb	sy
 8001b1c:	f3bf 8f4f 	dsb	sy
 8001b20:	6ba2      	ldr	r2, [r4, #56]	@ 0x38
 8001b22:	6be3      	ldr	r3, [r4, #60]	@ 0x3c
 8001b24:	4293      	cmp	r3, r2
 8001b26:	d919      	bls.n	8001b5c <xQueueGiveFromISR+0x9e>
 8001b28:	f894 1045 	ldrb.w	r1, [r4, #69]	@ 0x45
 8001b2c:	3201      	adds	r2, #1
 8001b2e:	29ff      	cmp	r1, #255	@ 0xff
 8001b30:	b24b      	sxtb	r3, r1
 8001b32:	63a2      	str	r2, [r4, #56]	@ 0x38
 8001b34:	d10d      	bne.n	8001b52 <xQueueGiveFromISR+0x94>
 8001b36:	6a63      	ldr	r3, [r4, #36]	@ 0x24
 8001b38:	b13b      	cbz	r3, 8001b4a <xQueueGiveFromISR+0x8c>
 8001b3a:	f104 0024 	add.w	r0, r4, #36	@ 0x24
 8001b3e:	f000 fccb 	bl	80024d8 <xTaskRemoveFromEventList>
 8001b42:	b110      	cbz	r0, 8001b4a <xQueueGiveFromISR+0x8c>
 8001b44:	b10d      	cbz	r5, 8001b4a <xQueueGiveFromISR+0x8c>
 8001b46:	2301      	movs	r3, #1
 8001b48:	602b      	str	r3, [r5, #0]
 8001b4a:	2001      	movs	r0, #1
 8001b4c:	f386 8811 	msr	BASEPRI, r6
 8001b50:	bd70      	pop	{r4, r5, r6, pc}
 8001b52:	3301      	adds	r3, #1
 8001b54:	b25b      	sxtb	r3, r3
 8001b56:	f884 3045 	strb.w	r3, [r4, #69]	@ 0x45
 8001b5a:	e7f6      	b.n	8001b4a <xQueueGiveFromISR+0x8c>
 8001b5c:	2000      	movs	r0, #0
 8001b5e:	e7f5      	b.n	8001b4c <xQueueGiveFromISR+0x8e>

08001b60 <xQueueReceive>:
 8001b60:	e92d 41ff 	stmdb	sp!, {r0, r1, r2, r3, r4, r5, r6, r7, r8, lr}
 8001b64:	460e      	mov	r6, r1
 8001b66:	9201      	str	r2, [sp, #4]
 8001b68:	4604      	mov	r4, r0
 8001b6a:	b940      	cbnz	r0, 8001b7e <xQueueReceive+0x1e>
 8001b6c:	f04f 0350 	mov.w	r3, #80	@ 0x50
 8001b70:	f383 8811 	msr	BASEPRI, r3
 8001b74:	f3bf 8f6f 	isb	sy
 8001b78:	f3bf 8f4f 	dsb	sy
 8001b7c:	e7fe      	b.n	8001b7c <xQueueReceive+0x1c>
 8001b7e:	b951      	cbnz	r1, 8001b96 <xQueueReceive+0x36>
 8001b80:	6c03      	ldr	r3, [r0, #64]	@ 0x40
 8001b82:	b143      	cbz	r3, 8001b96 <xQueueReceive+0x36>
 8001b84:	f04f 0350 	mov.w	r3, #80	@ 0x50
 8001b88:	f383 8811 	msr	BASEPRI, r3
 8001b8c:	f3bf 8f6f 	isb	sy
 8001b90:	f3bf 8f4f 	dsb	sy
 8001b94:	e7fe      	b.n	8001b94 <xQueueReceive+0x34>
 8001b96:	f000 fd2d 	bl	80025f4 <xTaskGetSchedulerState>
 8001b9a:	4605      	mov	r5, r0
 8001b9c:	b318      	cbz	r0, 8001be6 <xQueueReceive+0x86>
 8001b9e:	2500      	movs	r5, #0
 8001ba0:	f04f 0800 	mov.w	r8, #0
 8001ba4:	f000 ffc6 	bl	8002b34 <vPortEnterCritical>
 8001ba8:	6ba7      	ldr	r7, [r4, #56]	@ 0x38
 8001baa:	b347      	cbz	r7, 8001bfe <xQueueReceive+0x9e>
 8001bac:	4631      	mov	r1, r6
 8001bae:	4620      	mov	r0, r4
 8001bb0:	3f01      	subs	r7, #1
 8001bb2:	f7ff fd33 	bl	800161c <prvCopyDataFromQueue>
 8001bb6:	63a7      	str	r7, [r4, #56]	@ 0x38
 8001bb8:	6923      	ldr	r3, [r4, #16]
 8001bba:	b173      	cbz	r3, 8001bda <xQueueReceive+0x7a>
 8001bbc:	f104 0010 	add.w	r0, r4, #16
 8001bc0:	f000 fc8a 	bl	80024d8 <xTaskRemoveFromEventList>
 8001bc4:	b148      	cbz	r0, 8001bda <xQueueReceive+0x7a>
 8001bc6:	f04f 23e0 	mov.w	r3, #3758153728	@ 0xe000e000
 8001bca:	f04f 5280 	mov.w	r2, #268435456	@ 0x10000000
 8001bce:	f8c3 2d04 	str.w	r2, [r3, #3332]	@ 0xd04
 8001bd2:	f3bf 8f4f 	dsb	sy
 8001bd6:	f3bf 8f6f 	isb	sy
 8001bda:	f000 ffcb 	bl	8002b74 <vPortExitCritical>
 8001bde:	2001      	movs	r0, #1
 8001be0:	b004      	add	sp, #16
 8001be2:	e8bd 81f0 	ldmia.w	sp!, {r4, r5, r6, r7, r8, pc}
 8001be6:	9b01      	ldr	r3, [sp, #4]
 8001be8:	2b00      	cmp	r3, #0
 8001bea:	d0d9      	beq.n	8001ba0 <xQueueReceive+0x40>
 8001bec:	f04f 0350 	mov.w	r3, #80	@ 0x50
 8001bf0:	f383 8811 	msr	BASEPRI, r3
 8001bf4:	f3bf 8f6f 	isb	sy
 8001bf8:	f3bf 8f4f 	dsb	sy
 8001bfc:	e7fe      	b.n	8001bfc <xQueueReceive+0x9c>
 8001bfe:	9b01      	ldr	r3, [sp, #4]
 8001c00:	b91b      	cbnz	r3, 8001c0a <xQueueReceive+0xaa>
 8001c02:	f000 ffb7 	bl	8002b74 <vPortExitCritical>
 8001c06:	2000      	movs	r0, #0
 8001c08:	e7ea      	b.n	8001be0 <xQueueReceive+0x80>
 8001c0a:	b915      	cbnz	r5, 8001c12 <xQueueReceive+0xb2>
 8001c0c:	a802      	add	r0, sp, #8
 8001c0e:	f000 fca3 	bl	8002558 <vTaskInternalSetTimeOutState>
 8001c12:	f000 ffaf 	bl	8002b74 <vPortExitCritical>
 8001c16:	f000 fab1 	bl	800217c <vTaskSuspendAll>
 8001c1a:	f000 ff8b 	bl	8002b34 <vPortEnterCritical>
 8001c1e:	f894 3044 	ldrb.w	r3, [r4, #68]	@ 0x44
 8001c22:	2bff      	cmp	r3, #255	@ 0xff
 8001c24:	bf08      	it	eq
 8001c26:	f884 8044 	strbeq.w	r8, [r4, #68]	@ 0x44
 8001c2a:	f894 3045 	ldrb.w	r3, [r4, #69]	@ 0x45
 8001c2e:	2bff      	cmp	r3, #255	@ 0xff
 8001c30:	bf08      	it	eq
 8001c32:	f884 8045 	strbeq.w	r8, [r4, #69]	@ 0x45
 8001c36:	f000 ff9d 	bl	8002b74 <vPortExitCritical>
 8001c3a:	a901      	add	r1, sp, #4
 8001c3c:	a802      	add	r0, sp, #8
 8001c3e:	f000 fc97 	bl	8002570 <xTaskCheckForTimeOut>
 8001c42:	bb00      	cbnz	r0, 8001c86 <xQueueReceive+0x126>
 8001c44:	4620      	mov	r0, r4
 8001c46:	f7ff fcab 	bl	80015a0 <prvIsQueueEmpty>
 8001c4a:	b1b0      	cbz	r0, 8001c7a <xQueueReceive+0x11a>
 8001c4c:	9901      	ldr	r1, [sp, #4]
 8001c4e:	f104 0024 	add.w	r0, r4, #36	@ 0x24
 8001c52:	f000 fc09 	bl	8002468 <vTaskPlaceOnEventList>
 8001c56:	4620      	mov	r0, r4
 8001c58:	f7ff fcf6 	bl	8001648 <prvUnlockQueue>
 8001c5c:	f000 fb32 	bl	80022c4 <xTaskResumeAll>
 8001c60:	b948      	cbnz	r0, 8001c76 <xQueueReceive+0x116>
 8001c62:	f04f 23e0 	mov.w	r3, #3758153728	@ 0xe000e000
 8001c66:	f04f 5280 	mov.w	r2, #268435456	@ 0x10000000
 8001c6a:	f8c3 2d04 	str.w	r2, [r3, #3332]	@ 0xd04
 8001c6e:	f3bf 8f4f 	dsb	sy
 8001c72:	f3bf 8f6f 	isb	sy
 8001c76:	2501      	movs	r5, #1
 8001c78:	e794      	b.n	8001ba4 <xQueueReceive+0x44>
 8001c7a:	4620      	mov	r0, r4
 8001c7c:	f7ff fce4 	bl	8001648 <prvUnlockQueue>
 8001c80:	f000 fb20 	bl	80022c4 <xTaskResumeAll>
 8001c84:	e7f7      	b.n	8001c76 <xQueueReceive+0x116>
 8001c86:	4620      	mov	r0, r4
 8001c88:	f7ff fcde 	bl	8001648 <prvUnlockQueue>
 8001c8c:	f000 fb1a 	bl	80022c4 <xTaskResumeAll>
 8001c90:	4620      	mov	r0, r4
 8001c92:	f7ff fc85 	bl	80015a0 <prvIsQueueEmpty>
 8001c96:	2800      	cmp	r0, #0
 8001c98:	d0ed      	beq.n	8001c76 <xQueueReceive+0x116>
 8001c9a:	e7b4      	b.n	8001c06 <xQueueReceive+0xa6>

08001c9c <vQueueAddToRegistry>:
 8001c9c:	b530      	push	{r4, r5, lr}
 8001c9e:	4a07      	ldr	r2, [pc, #28]	@ (8001cbc <vQueueAddToRegistry+0x20>)
 8001ca0:	2300      	movs	r3, #0
 8001ca2:	f852 5033 	ldr.w	r5, [r2, r3, lsl #3]
 8001ca6:	eb02 04c3 	add.w	r4, r2, r3, lsl #3
 8001caa:	b91d      	cbnz	r5, 8001cb4 <vQueueAddToRegistry+0x18>
 8001cac:	f842 1033 	str.w	r1, [r2, r3, lsl #3]
 8001cb0:	6060      	str	r0, [r4, #4]
 8001cb2:	bd30      	pop	{r4, r5, pc}
 8001cb4:	3301      	adds	r3, #1
 8001cb6:	2b08      	cmp	r3, #8
 8001cb8:	d1f3      	bne.n	8001ca2 <vQueueAddToRegistry+0x6>
 8001cba:	e7fa      	b.n	8001cb2 <vQueueAddToRegistry+0x16>
 8001cbc:	200007a4 	.word	0x200007a4

08001cc0 <vQueueUnregisterQueue>:
 8001cc0:	b510      	push	{r4, lr}
 8001cc2:	4a09      	ldr	r2, [pc, #36]	@ (8001ce8 <vQueueUnregisterQueue+0x28>)
 8001cc4:	2300      	movs	r3, #0
 8001cc6:	f852 1033 	ldr.w	r1, [r2, r3, lsl #3]
 8001cca:	4281      	cmp	r1, r0
 8001ccc:	ea4f 04c3 	mov.w	r4, r3, lsl #3
 8001cd0:	d106      	bne.n	8001ce0 <vQueueUnregisterQueue+0x20>
 8001cd2:	4a06      	ldr	r2, [pc, #24]	@ (8001cec <vQueueUnregisterQueue+0x2c>)
 8001cd4:	2100      	movs	r1, #0
 8001cd6:	f842 1033 	str.w	r1, [r2, r3, lsl #3]
 8001cda:	4422      	add	r2, r4
 8001cdc:	6051      	str	r1, [r2, #4]
 8001cde:	bd10      	pop	{r4, pc}
 8001ce0:	3301      	adds	r3, #1
 8001ce2:	2b08      	cmp	r3, #8
 8001ce4:	d1ef      	bne.n	8001cc6 <vQueueUnregisterQueue+0x6>
 8001ce6:	e7fa      	b.n	8001cde <vQueueUnregisterQueue+0x1e>
 8001ce8:	200007a8 	.word	0x200007a8
 8001cec:	200007a4 	.word	0x200007a4

08001cf0 <vQueueDelete>:
 8001cf0:	b510      	push	{r4, lr}
 8001cf2:	b940      	cbnz	r0, 8001d06 <vQueueDelete+0x16>
 8001cf4:	f04f 0350 	mov.w	r3, #80	@ 0x50
 8001cf8:	f383 8811 	msr	BASEPRI, r3
 8001cfc:	f3bf 8f6f 	isb	sy
 8001d00:	f3bf 8f4f 	dsb	sy
 8001d04:	e7fe      	b.n	8001d04 <vQueueDelete+0x14>
 8001d06:	f7ff ffdb 	bl	8001cc0 <vQueueUnregisterQueue>
 8001d0a:	f890 3046 	ldrb.w	r3, [r0, #70]	@ 0x46
 8001d0e:	b91b      	cbnz	r3, 8001d18 <vQueueDelete+0x28>
 8001d10:	e8bd 4010 	ldmia.w	sp!, {r4, lr}
 8001d14:	f001 b90c 	b.w	8002f30 <vPortFree>
 8001d18:	bd10      	pop	{r4, pc}

08001d1a <vQueueWaitForMessageRestricted>:
 8001d1a:	b570      	push	{r4, r5, r6, lr}
 8001d1c:	4604      	mov	r4, r0
 8001d1e:	460d      	mov	r5, r1
 8001d20:	4616      	mov	r6, r2
 8001d22:	f000 ff07 	bl	8002b34 <vPortEnterCritical>
 8001d26:	f894 3044 	ldrb.w	r3, [r4, #68]	@ 0x44
 8001d2a:	2bff      	cmp	r3, #255	@ 0xff
 8001d2c:	bf04      	itt	eq
 8001d2e:	2300      	moveq	r3, #0
 8001d30:	f884 3044 	strbeq.w	r3, [r4, #68]	@ 0x44
 8001d34:	f894 3045 	ldrb.w	r3, [r4, #69]	@ 0x45
 8001d38:	2bff      	cmp	r3, #255	@ 0xff
 8001d3a:	bf04      	itt	eq
 8001d3c:	2300      	moveq	r3, #0
 8001d3e:	f884 3045 	strbeq.w	r3, [r4, #69]	@ 0x45
 8001d42:	f000 ff17 	bl	8002b74 <vPortExitCritical>
 8001d46:	6ba3      	ldr	r3, [r4, #56]	@ 0x38
 8001d48:	b92b      	cbnz	r3, 8001d56 <vQueueWaitForMessageRestricted+0x3c>
 8001d4a:	4632      	mov	r2, r6
 8001d4c:	4629      	mov	r1, r5
 8001d4e:	f104 0024 	add.w	r0, r4, #36	@ 0x24
 8001d52:	f000 fba3 	bl	800249c <vTaskPlaceOnEventListRestricted>
 8001d56:	4620      	mov	r0, r4
 8001d58:	e8bd 4070 	ldmia.w	sp!, {r4, r5, r6, lr}
 8001d5c:	f7ff bc74 	b.w	8001648 <prvUnlockQueue>

08001d60 <prvAddNewTaskToReadyList>:
 8001d60:	e92d 41f0 	stmdb	sp!, {r4, r5, r6, r7, r8, lr}
 8001d64:	4604      	mov	r4, r0
 8001d66:	f000 fee5 	bl	8002b34 <vPortEnterCritical>
 8001d6a:	4b30      	ldr	r3, [pc, #192]	@ (8001e2c <prvAddNewTaskToReadyList+0xcc>)
 8001d6c:	4e30      	ldr	r6, [pc, #192]	@ (8001e30 <prvAddNewTaskToReadyList+0xd0>)
 8001d6e:	681a      	ldr	r2, [r3, #0]
 8001d70:	4f30      	ldr	r7, [pc, #192]	@ (8001e34 <prvAddNewTaskToReadyList+0xd4>)
 8001d72:	3201      	adds	r2, #1
 8001d74:	601a      	str	r2, [r3, #0]
 8001d76:	6835      	ldr	r5, [r6, #0]
 8001d78:	2d00      	cmp	r5, #0
 8001d7a:	d14b      	bne.n	8001e14 <prvAddNewTaskToReadyList+0xb4>
 8001d7c:	6034      	str	r4, [r6, #0]
 8001d7e:	681b      	ldr	r3, [r3, #0]
 8001d80:	2b01      	cmp	r3, #1
 8001d82:	d11f      	bne.n	8001dc4 <prvAddNewTaskToReadyList+0x64>
 8001d84:	46b8      	mov	r8, r7
 8001d86:	4640      	mov	r0, r8
 8001d88:	3501      	adds	r5, #1
 8001d8a:	f7ff fbc9 	bl	8001520 <vListInitialise>
 8001d8e:	2d38      	cmp	r5, #56	@ 0x38
 8001d90:	f108 0814 	add.w	r8, r8, #20
 8001d94:	d1f7      	bne.n	8001d86 <prvAddNewTaskToReadyList+0x26>
 8001d96:	f8df 80c4 	ldr.w	r8, [pc, #196]	@ 8001e5c <prvAddNewTaskToReadyList+0xfc>
 8001d9a:	4d27      	ldr	r5, [pc, #156]	@ (8001e38 <prvAddNewTaskToReadyList+0xd8>)
 8001d9c:	4640      	mov	r0, r8
 8001d9e:	f7ff fbbf 	bl	8001520 <vListInitialise>
 8001da2:	4628      	mov	r0, r5
 8001da4:	f7ff fbbc 	bl	8001520 <vListInitialise>
 8001da8:	4824      	ldr	r0, [pc, #144]	@ (8001e3c <prvAddNewTaskToReadyList+0xdc>)
 8001daa:	f7ff fbb9 	bl	8001520 <vListInitialise>
 8001dae:	4824      	ldr	r0, [pc, #144]	@ (8001e40 <prvAddNewTaskToReadyList+0xe0>)
 8001db0:	f7ff fbb6 	bl	8001520 <vListInitialise>
 8001db4:	4823      	ldr	r0, [pc, #140]	@ (8001e44 <prvAddNewTaskToReadyList+0xe4>)
 8001db6:	f7ff fbb3 	bl	8001520 <vListInitialise>
 8001dba:	4b23      	ldr	r3, [pc, #140]	@ (8001e48 <prvAddNewTaskToReadyList+0xe8>)
 8001dbc:	f8c3 8000 	str.w	r8, [r3]
 8001dc0:	4b22      	ldr	r3, [pc, #136]	@ (8001e4c <prvAddNewTaskToReadyList+0xec>)
 8001dc2:	601d      	str	r5, [r3, #0]
 8001dc4:	4a22      	ldr	r2, [pc, #136]	@ (8001e50 <prvAddNewTaskToReadyList+0xf0>)
 8001dc6:	6813      	ldr	r3, [r2, #0]
 8001dc8:	3301      	adds	r3, #1
 8001dca:	6013      	str	r3, [r2, #0]
 8001dcc:	4a21      	ldr	r2, [pc, #132]	@ (8001e54 <prvAddNewTaskToReadyList+0xf4>)
 8001dce:	6463      	str	r3, [r4, #68]	@ 0x44
 8001dd0:	6811      	ldr	r1, [r2, #0]
 8001dd2:	6ae3      	ldr	r3, [r4, #44]	@ 0x2c
 8001dd4:	2014      	movs	r0, #20
 8001dd6:	428b      	cmp	r3, r1
 8001dd8:	fb00 7003 	mla	r0, r0, r3, r7
 8001ddc:	f104 0104 	add.w	r1, r4, #4
 8001de0:	bf88      	it	hi
 8001de2:	6013      	strhi	r3, [r2, #0]
 8001de4:	f7ff fbaa 	bl	800153c <vListInsertEnd>
 8001de8:	f000 fec4 	bl	8002b74 <vPortExitCritical>
 8001dec:	4b1a      	ldr	r3, [pc, #104]	@ (8001e58 <prvAddNewTaskToReadyList+0xf8>)
 8001dee:	681b      	ldr	r3, [r3, #0]
 8001df0:	b173      	cbz	r3, 8001e10 <prvAddNewTaskToReadyList+0xb0>
 8001df2:	6833      	ldr	r3, [r6, #0]
 8001df4:	6ada      	ldr	r2, [r3, #44]	@ 0x2c
 8001df6:	6ae3      	ldr	r3, [r4, #44]	@ 0x2c
 8001df8:	429a      	cmp	r2, r3
 8001dfa:	d209      	bcs.n	8001e10 <prvAddNewTaskToReadyList+0xb0>
 8001dfc:	f04f 23e0 	mov.w	r3, #3758153728	@ 0xe000e000
 8001e00:	f04f 5280 	mov.w	r2, #268435456	@ 0x10000000
 8001e04:	f8c3 2d04 	str.w	r2, [r3, #3332]	@ 0xd04
 8001e08:	f3bf 8f4f 	dsb	sy
 8001e0c:	f3bf 8f6f 	isb	sy
 8001e10:	e8bd 81f0 	ldmia.w	sp!, {r4, r5, r6, r7, r8, pc}
 8001e14:	4b10      	ldr	r3, [pc, #64]	@ (8001e58 <prvAddNewTaskToReadyList+0xf8>)
 8001e16:	681a      	ldr	r2, [r3, #0]
 8001e18:	6ae3      	ldr	r3, [r4, #44]	@ 0x2c
 8001e1a:	2a00      	cmp	r2, #0
 8001e1c:	d1d2      	bne.n	8001dc4 <prvAddNewTaskToReadyList+0x64>
 8001e1e:	6832      	ldr	r2, [r6, #0]
 8001e20:	6ad2      	ldr	r2, [r2, #44]	@ 0x2c
 8001e22:	429a      	cmp	r2, r3
 8001e24:	bf98      	it	ls
 8001e26:	6034      	strls	r4, [r6, #0]
 8001e28:	e7cc      	b.n	8001dc4 <prvAddNewTaskToReadyList+0x64>
 8001e2a:	bf00      	nop
 8001e2c:	20000808 	.word	0x20000808
 8001e30:	20000cdc 	.word	0x20000cdc
 8001e34:	2000087c 	.word	0x2000087c
 8001e38:	20000854 	.word	0x20000854
 8001e3c:	20000838 	.word	0x20000838
 8001e40:	20000824 	.word	0x20000824
 8001e44:	2000080c 	.word	0x2000080c
 8001e48:	20000850 	.word	0x20000850
 8001e4c:	2000084c 	.word	0x2000084c
 8001e50:	200007ec 	.word	0x200007ec
 8001e54:	20000800 	.word	0x20000800
 8001e58:	200007fc 	.word	0x200007fc
 8001e5c:	20000868 	.word	0x20000868

08001e60 <prvAddCurrentTaskToDelayedList>:
 8001e60:	b5f8      	push	{r3, r4, r5, r6, r7, lr}
 8001e62:	4b15      	ldr	r3, [pc, #84]	@ (8001eb8 <prvAddCurrentTaskToDelayedList+0x58>)
 8001e64:	4d15      	ldr	r5, [pc, #84]	@ (8001ebc <prvAddCurrentTaskToDelayedList+0x5c>)
 8001e66:	681c      	ldr	r4, [r3, #0]
 8001e68:	4606      	mov	r6, r0
 8001e6a:	6828      	ldr	r0, [r5, #0]
 8001e6c:	3004      	adds	r0, #4
 8001e6e:	460f      	mov	r7, r1
 8001e70:	f7ff fb86 	bl	8001580 <uxListRemove>
 8001e74:	1c73      	adds	r3, r6, #1
 8001e76:	d107      	bne.n	8001e88 <prvAddCurrentTaskToDelayedList+0x28>
 8001e78:	b137      	cbz	r7, 8001e88 <prvAddCurrentTaskToDelayedList+0x28>
 8001e7a:	6829      	ldr	r1, [r5, #0]
 8001e7c:	4810      	ldr	r0, [pc, #64]	@ (8001ec0 <prvAddCurrentTaskToDelayedList+0x60>)
 8001e7e:	e8bd 40f8 	ldmia.w	sp!, {r3, r4, r5, r6, r7, lr}
 8001e82:	3104      	adds	r1, #4
 8001e84:	f7ff bb5a 	b.w	800153c <vListInsertEnd>
 8001e88:	682b      	ldr	r3, [r5, #0]
 8001e8a:	19a4      	adds	r4, r4, r6
 8001e8c:	605c      	str	r4, [r3, #4]
 8001e8e:	d307      	bcc.n	8001ea0 <prvAddCurrentTaskToDelayedList+0x40>
 8001e90:	4b0c      	ldr	r3, [pc, #48]	@ (8001ec4 <prvAddCurrentTaskToDelayedList+0x64>)
 8001e92:	6818      	ldr	r0, [r3, #0]
 8001e94:	6829      	ldr	r1, [r5, #0]
 8001e96:	e8bd 40f8 	ldmia.w	sp!, {r3, r4, r5, r6, r7, lr}
 8001e9a:	3104      	adds	r1, #4
 8001e9c:	f7ff bb59 	b.w	8001552 <vListInsert>
 8001ea0:	4b09      	ldr	r3, [pc, #36]	@ (8001ec8 <prvAddCurrentTaskToDelayedList+0x68>)
 8001ea2:	6818      	ldr	r0, [r3, #0]
 8001ea4:	6829      	ldr	r1, [r5, #0]
 8001ea6:	3104      	adds	r1, #4
 8001ea8:	f7ff fb53 	bl	8001552 <vListInsert>
 8001eac:	4b07      	ldr	r3, [pc, #28]	@ (8001ecc <prvAddCurrentTaskToDelayedList+0x6c>)
 8001eae:	681a      	ldr	r2, [r3, #0]
 8001eb0:	42a2      	cmp	r2, r4
 8001eb2:	bf88      	it	hi
 8001eb4:	601c      	strhi	r4, [r3, #0]
 8001eb6:	bdf8      	pop	{r3, r4, r5, r6, r7, pc}
 8001eb8:	20000804 	.word	0x20000804
 8001ebc:	20000cdc 	.word	0x20000cdc
 8001ec0:	2000080c 	.word	0x2000080c
 8001ec4:	2000084c 	.word	0x2000084c
 8001ec8:	20000850 	.word	0x20000850
 8001ecc:	200007e8 	.word	0x200007e8

08001ed0 <prvResetNextTaskUnblockTime>:
 8001ed0:	4a06      	ldr	r2, [pc, #24]	@ (8001eec <prvResetNextTaskUnblockTime+0x1c>)
 8001ed2:	6813      	ldr	r3, [r2, #0]
 8001ed4:	6819      	ldr	r1, [r3, #0]
 8001ed6:	4b06      	ldr	r3, [pc, #24]	@ (8001ef0 <prvResetNextTaskUnblockTime+0x20>)
 8001ed8:	b919      	cbnz	r1, 8001ee2 <prvResetNextTaskUnblockTime+0x12>
 8001eda:	f04f 32ff 	mov.w	r2, #4294967295
 8001ede:	601a      	str	r2, [r3, #0]
 8001ee0:	4770      	bx	lr
 8001ee2:	6812      	ldr	r2, [r2, #0]
 8001ee4:	68d2      	ldr	r2, [r2, #12]
 8001ee6:	68d2      	ldr	r2, [r2, #12]
 8001ee8:	6852      	ldr	r2, [r2, #4]
 8001eea:	e7f8      	b.n	8001ede <prvResetNextTaskUnblockTime+0xe>
 8001eec:	20000850 	.word	0x20000850
 8001ef0:	200007e8 	.word	0x200007e8

08001ef4 <prvDeleteTCB>:
 8001ef4:	b510      	push	{r4, lr}
 8001ef6:	f890 3059 	ldrb.w	r3, [r0, #89]	@ 0x59
 8001efa:	4604      	mov	r4, r0
 8001efc:	b93b      	cbnz	r3, 8001f0e <prvDeleteTCB+0x1a>
 8001efe:	6b00      	ldr	r0, [r0, #48]	@ 0x30
 8001f00:	f001 f816 	bl	8002f30 <vPortFree>
 8001f04:	4620      	mov	r0, r4
 8001f06:	e8bd 4010 	ldmia.w	sp!, {r4, lr}
 8001f0a:	f001 b811 	b.w	8002f30 <vPortFree>
 8001f0e:	2b01      	cmp	r3, #1
 8001f10:	d0f9      	beq.n	8001f06 <prvDeleteTCB+0x12>
 8001f12:	2b02      	cmp	r3, #2
 8001f14:	d008      	beq.n	8001f28 <prvDeleteTCB+0x34>
 8001f16:	f04f 0350 	mov.w	r3, #80	@ 0x50
 8001f1a:	f383 8811 	msr	BASEPRI, r3
 8001f1e:	f3bf 8f6f 	isb	sy
 8001f22:	f3bf 8f4f 	dsb	sy
 8001f26:	e7fe      	b.n	8001f26 <prvDeleteTCB+0x32>
 8001f28:	bd10      	pop	{r4, pc}
	...

08001f2c <prvIdleTask>:
 8001f2c:	b580      	push	{r7, lr}
 8001f2e:	4c13      	ldr	r4, [pc, #76]	@ (8001f7c <prvIdleTask+0x50>)
 8001f30:	4f13      	ldr	r7, [pc, #76]	@ (8001f80 <prvIdleTask+0x54>)
 8001f32:	4d14      	ldr	r5, [pc, #80]	@ (8001f84 <prvIdleTask+0x58>)
 8001f34:	6823      	ldr	r3, [r4, #0]
 8001f36:	b973      	cbnz	r3, 8001f56 <prvIdleTask+0x2a>
 8001f38:	4b13      	ldr	r3, [pc, #76]	@ (8001f88 <prvIdleTask+0x5c>)
 8001f3a:	681b      	ldr	r3, [r3, #0]
 8001f3c:	2b01      	cmp	r3, #1
 8001f3e:	d9f8      	bls.n	8001f32 <prvIdleTask+0x6>
 8001f40:	f04f 23e0 	mov.w	r3, #3758153728	@ 0xe000e000
 8001f44:	f04f 5280 	mov.w	r2, #268435456	@ 0x10000000
 8001f48:	f8c3 2d04 	str.w	r2, [r3, #3332]	@ 0xd04
 8001f4c:	f3bf 8f4f 	dsb	sy
 8001f50:	f3bf 8f6f 	isb	sy
 8001f54:	e7ed      	b.n	8001f32 <prvIdleTask+0x6>
 8001f56:	f000 fded 	bl	8002b34 <vPortEnterCritical>
 8001f5a:	68fb      	ldr	r3, [r7, #12]
 8001f5c:	68de      	ldr	r6, [r3, #12]
 8001f5e:	1d30      	adds	r0, r6, #4
 8001f60:	f7ff fb0e 	bl	8001580 <uxListRemove>
 8001f64:	682b      	ldr	r3, [r5, #0]
 8001f66:	3b01      	subs	r3, #1
 8001f68:	602b      	str	r3, [r5, #0]
 8001f6a:	6823      	ldr	r3, [r4, #0]
 8001f6c:	3b01      	subs	r3, #1
 8001f6e:	6023      	str	r3, [r4, #0]
 8001f70:	f000 fe00 	bl	8002b74 <vPortExitCritical>
 8001f74:	4630      	mov	r0, r6
 8001f76:	f7ff ffbd 	bl	8001ef4 <prvDeleteTCB>
 8001f7a:	e7db      	b.n	8001f34 <prvIdleTask+0x8>
 8001f7c:	20000820 	.word	0x20000820
 8001f80:	20000824 	.word	0x20000824
 8001f84:	20000808 	.word	0x20000808
 8001f88:	2000087c 	.word	0x2000087c

08001f8c <prvInitialiseNewTask.constprop.0>:
 8001f8c:	e92d 47f0 	stmdb	sp!, {r4, r5, r6, r7, r8, r9, sl, lr}
 8001f90:	e9dd 9409 	ldrd	r9, r4, [sp, #36]	@ 0x24
 8001f94:	0096      	lsls	r6, r2, #2
 8001f96:	4632      	mov	r2, r6
 8001f98:	4607      	mov	r7, r0
 8001f9a:	460d      	mov	r5, r1
 8001f9c:	6b20      	ldr	r0, [r4, #48]	@ 0x30
 8001f9e:	21a5      	movs	r1, #165	@ 0xa5
 8001fa0:	4698      	mov	r8, r3
 8001fa2:	f001 f9fb 	bl	800339c <memset>
 8001fa6:	6b23      	ldr	r3, [r4, #48]	@ 0x30
 8001fa8:	3e04      	subs	r6, #4
 8001faa:	441e      	add	r6, r3
 8001fac:	f026 0607 	bic.w	r6, r6, #7
 8001fb0:	b3a5      	cbz	r5, 800201c <prvInitialiseNewTask.constprop.0+0x90>
 8001fb2:	1e6b      	subs	r3, r5, #1
 8001fb4:	f104 0233 	add.w	r2, r4, #51	@ 0x33
 8001fb8:	350f      	adds	r5, #15
 8001fba:	f813 1f01 	ldrb.w	r1, [r3, #1]!
 8001fbe:	f802 1f01 	strb.w	r1, [r2, #1]!
 8001fc2:	b109      	cbz	r1, 8001fc8 <prvInitialiseNewTask.constprop.0+0x3c>
 8001fc4:	42ab      	cmp	r3, r5
 8001fc6:	d1f8      	bne.n	8001fba <prvInitialiseNewTask.constprop.0+0x2e>
 8001fc8:	2300      	movs	r3, #0
 8001fca:	f884 3043 	strb.w	r3, [r4, #67]	@ 0x43
 8001fce:	9d08      	ldr	r5, [sp, #32]
 8001fd0:	2d37      	cmp	r5, #55	@ 0x37
 8001fd2:	bf28      	it	cs
 8001fd4:	2537      	movcs	r5, #55	@ 0x37
 8001fd6:	f04f 0a00 	mov.w	sl, #0
 8001fda:	62e5      	str	r5, [r4, #44]	@ 0x2c
 8001fdc:	64e5      	str	r5, [r4, #76]	@ 0x4c
 8001fde:	1d20      	adds	r0, r4, #4
 8001fe0:	f8c4 a050 	str.w	sl, [r4, #80]	@ 0x50
 8001fe4:	f7ff faa7 	bl	8001536 <vListInitialiseItem>
 8001fe8:	f1c5 0538 	rsb	r5, r5, #56	@ 0x38
 8001fec:	f104 0018 	add.w	r0, r4, #24
 8001ff0:	f7ff faa1 	bl	8001536 <vListInitialiseItem>
 8001ff4:	f8c4 a054 	str.w	sl, [r4, #84]	@ 0x54
 8001ff8:	6124      	str	r4, [r4, #16]
 8001ffa:	61a5      	str	r5, [r4, #24]
 8001ffc:	6264      	str	r4, [r4, #36]	@ 0x24
 8001ffe:	f884 a058 	strb.w	sl, [r4, #88]	@ 0x58
 8002002:	4642      	mov	r2, r8
 8002004:	4639      	mov	r1, r7
 8002006:	4630      	mov	r0, r6
 8002008:	f000 fd6c 	bl	8002ae4 <pxPortInitialiseStack>
 800200c:	6020      	str	r0, [r4, #0]
 800200e:	f1b9 0f00 	cmp.w	r9, #0
 8002012:	d001      	beq.n	8002018 <prvInitialiseNewTask.constprop.0+0x8c>
 8002014:	f8c9 4000 	str.w	r4, [r9]
 8002018:	e8bd 87f0 	ldmia.w	sp!, {r4, r5, r6, r7, r8, r9, sl, pc}
 800201c:	f884 5034 	strb.w	r5, [r4, #52]	@ 0x34
 8002020:	e7d5      	b.n	8001fce <prvInitialiseNewTask.constprop.0+0x42>

08002022 <xTaskCreateStatic>:
 8002022:	b570      	push	{r4, r5, r6, lr}
 8002024:	b086      	sub	sp, #24
 8002026:	e9dd 540b 	ldrd	r5, r4, [sp, #44]	@ 0x2c
 800202a:	b945      	cbnz	r5, 800203e <xTaskCreateStatic+0x1c>
 800202c:	f04f 0350 	mov.w	r3, #80	@ 0x50
 8002030:	f383 8811 	msr	BASEPRI, r3
 8002034:	f3bf 8f6f 	isb	sy
 8002038:	f3bf 8f4f 	dsb	sy
 800203c:	e7fe      	b.n	800203c <xTaskCreateStatic+0x1a>
 800203e:	b944      	cbnz	r4, 8002052 <xTaskCreateStatic+0x30>
 8002040:	f04f 0350 	mov.w	r3, #80	@ 0x50
 8002044:	f383 8811 	msr	BASEPRI, r3
 8002048:	f3bf 8f6f 	isb	sy
 800204c:	f3bf 8f4f 	dsb	sy
 8002050:	e7fe      	b.n	8002050 <xTaskCreateStatic+0x2e>
 8002052:	265c      	movs	r6, #92	@ 0x5c
 8002054:	9605      	str	r6, [sp, #20]
 8002056:	9e05      	ldr	r6, [sp, #20]
 8002058:	2e5c      	cmp	r6, #92	@ 0x5c
 800205a:	d008      	beq.n	800206e <xTaskCreateStatic+0x4c>
 800205c:	f04f 0350 	mov.w	r3, #80	@ 0x50
 8002060:	f383 8811 	msr	BASEPRI, r3
 8002064:	f3bf 8f6f 	isb	sy
 8002068:	f3bf 8f4f 	dsb	sy
 800206c:	e7fe      	b.n	800206c <xTaskCreateStatic+0x4a>
 800206e:	6325      	str	r5, [r4, #48]	@ 0x30
 8002070:	2502      	movs	r5, #2
 8002072:	f884 5059 	strb.w	r5, [r4, #89]	@ 0x59
 8002076:	ad04      	add	r5, sp, #16
 8002078:	9501      	str	r5, [sp, #4]
 800207a:	9d0a      	ldr	r5, [sp, #40]	@ 0x28
 800207c:	9402      	str	r4, [sp, #8]
 800207e:	9500      	str	r5, [sp, #0]
 8002080:	9e05      	ldr	r6, [sp, #20]
 8002082:	f7ff ff83 	bl	8001f8c <prvInitialiseNewTask.constprop.0>
 8002086:	4620      	mov	r0, r4
 8002088:	f7ff fe6a 	bl	8001d60 <prvAddNewTaskToReadyList>
 800208c:	9804      	ldr	r0, [sp, #16]
 800208e:	b006      	add	sp, #24
 8002090:	bd70      	pop	{r4, r5, r6, pc}

08002092 <xTaskCreate>:
 8002092:	e92d 43f0 	stmdb	sp!, {r4, r5, r6, r7, r8, r9, lr}
 8002096:	4607      	mov	r7, r0
 8002098:	b085      	sub	sp, #20
 800209a:	0090      	lsls	r0, r2, #2
 800209c:	4688      	mov	r8, r1
 800209e:	4616      	mov	r6, r2
 80020a0:	4699      	mov	r9, r3
 80020a2:	f000 fead 	bl	8002e00 <pvPortMalloc>
 80020a6:	4605      	mov	r5, r0
 80020a8:	b920      	cbnz	r0, 80020b4 <xTaskCreate+0x22>
 80020aa:	f04f 30ff 	mov.w	r0, #4294967295
 80020ae:	b005      	add	sp, #20
 80020b0:	e8bd 83f0 	ldmia.w	sp!, {r4, r5, r6, r7, r8, r9, pc}
 80020b4:	205c      	movs	r0, #92	@ 0x5c
 80020b6:	f000 fea3 	bl	8002e00 <pvPortMalloc>
 80020ba:	4604      	mov	r4, r0
 80020bc:	b198      	cbz	r0, 80020e6 <xTaskCreate+0x54>
 80020be:	2300      	movs	r3, #0
 80020c0:	f880 3059 	strb.w	r3, [r0, #89]	@ 0x59
 80020c4:	9b0d      	ldr	r3, [sp, #52]	@ 0x34
 80020c6:	6305      	str	r5, [r0, #48]	@ 0x30
 80020c8:	9301      	str	r3, [sp, #4]
 80020ca:	9b0c      	ldr	r3, [sp, #48]	@ 0x30
 80020cc:	9002      	str	r0, [sp, #8]
 80020ce:	9300      	str	r3, [sp, #0]
 80020d0:	4632      	mov	r2, r6
 80020d2:	464b      	mov	r3, r9
 80020d4:	4641      	mov	r1, r8
 80020d6:	4638      	mov	r0, r7
 80020d8:	f7ff ff58 	bl	8001f8c <prvInitialiseNewTask.constprop.0>
 80020dc:	4620      	mov	r0, r4
 80020de:	f7ff fe3f 	bl	8001d60 <prvAddNewTaskToReadyList>
 80020e2:	2001      	movs	r0, #1
 80020e4:	e7e3      	b.n	80020ae <xTaskCreate+0x1c>
 80020e6:	4628      	mov	r0, r5
 80020e8:	f000 ff22 	bl	8002f30 <vPortFree>
 80020ec:	e7dd      	b.n	80020aa <xTaskCreate+0x18>
	...

080020f0 <vTaskStartScheduler>:
 80020f0:	b510      	push	{r4, lr}
 80020f2:	b088      	sub	sp, #32
 80020f4:	2400      	movs	r4, #0
 80020f6:	aa07      	add	r2, sp, #28
 80020f8:	a906      	add	r1, sp, #24
 80020fa:	a805      	add	r0, sp, #20
 80020fc:	e9cd 4405 	strd	r4, r4, [sp, #20]
 8002100:	f7ff f9f6 	bl	80014f0 <vApplicationGetIdleTaskMemory>
 8002104:	9b05      	ldr	r3, [sp, #20]
 8002106:	9302      	str	r3, [sp, #8]
 8002108:	9b06      	ldr	r3, [sp, #24]
 800210a:	9a07      	ldr	r2, [sp, #28]
 800210c:	4916      	ldr	r1, [pc, #88]	@ (8002168 <vTaskStartScheduler+0x78>)
 800210e:	4817      	ldr	r0, [pc, #92]	@ (800216c <vTaskStartScheduler+0x7c>)
 8002110:	e9cd 4300 	strd	r4, r3, [sp]
 8002114:	4623      	mov	r3, r4
 8002116:	f7ff ff84 	bl	8002022 <xTaskCreateStatic>
 800211a:	b318      	cbz	r0, 8002164 <vTaskStartScheduler+0x74>
 800211c:	f000 fb0e 	bl	800273c <xTimerCreateTimerTask>
 8002120:	2801      	cmp	r0, #1
 8002122:	d114      	bne.n	800214e <vTaskStartScheduler+0x5e>
 8002124:	f04f 0350 	mov.w	r3, #80	@ 0x50
 8002128:	f383 8811 	msr	BASEPRI, r3
 800212c:	f3bf 8f6f 	isb	sy
 8002130:	f3bf 8f4f 	dsb	sy
 8002134:	4b0e      	ldr	r3, [pc, #56]	@ (8002170 <vTaskStartScheduler+0x80>)
 8002136:	f04f 32ff 	mov.w	r2, #4294967295
 800213a:	601a      	str	r2, [r3, #0]
 800213c:	4b0d      	ldr	r3, [pc, #52]	@ (8002174 <vTaskStartScheduler+0x84>)
 800213e:	6018      	str	r0, [r3, #0]
 8002140:	4b0d      	ldr	r3, [pc, #52]	@ (8002178 <vTaskStartScheduler+0x88>)
 8002142:	601c      	str	r4, [r3, #0]
 8002144:	b008      	add	sp, #32
 8002146:	e8bd 4010 	ldmia.w	sp!, {r4, lr}
 800214a:	f000 bd83 	b.w	8002c54 <xPortStartScheduler>
 800214e:	3001      	adds	r0, #1
 8002150:	d108      	bne.n	8002164 <vTaskStartScheduler+0x74>
 8002152:	f04f 0350 	mov.w	r3, #80	@ 0x50
 8002156:	f383 8811 	msr	BASEPRI, r3
 800215a:	f3bf 8f6f 	isb	sy
 800215e:	f3bf 8f4f 	dsb	sy
 8002162:	e7fe      	b.n	8002162 <vTaskStartScheduler+0x72>
 8002164:	b008      	add	sp, #32
 8002166:	bd10      	pop	{r4, pc}
 8002168:	08003a1f 	.word	0x08003a1f
 800216c:	08001f2d 	.word	0x08001f2d
 8002170:	200007e8 	.word	0x200007e8
 8002174:	200007fc 	.word	0x200007fc
 8002178:	20000804 	.word	0x20000804

0800217c <vTaskSuspendAll>:
 800217c:	4a02      	ldr	r2, [pc, #8]	@ (8002188 <vTaskSuspendAll+0xc>)
 800217e:	6813      	ldr	r3, [r2, #0]
 8002180:	3301      	adds	r3, #1
 8002182:	6013      	str	r3, [r2, #0]
 8002184:	4770      	bx	lr
 8002186:	bf00      	nop
 8002188:	200007e4 	.word	0x200007e4

0800218c <xTaskGetTickCount>:
 800218c:	4b01      	ldr	r3, [pc, #4]	@ (8002194 <xTaskGetTickCount+0x8>)
 800218e:	6818      	ldr	r0, [r3, #0]
 8002190:	4770      	bx	lr
 8002192:	bf00      	nop
 8002194:	20000804 	.word	0x20000804

08002198 <xTaskIncrementTick>:
 8002198:	4b3f      	ldr	r3, [pc, #252]	@ (8002298 <xTaskIncrementTick+0x100>)
 800219a:	681b      	ldr	r3, [r3, #0]
 800219c:	e92d 4ff7 	stmdb	sp!, {r0, r1, r2, r4, r5, r6, r7, r8, r9, sl, fp, lr}
 80021a0:	2b00      	cmp	r3, #0
 80021a2:	d172      	bne.n	800228a <xTaskIncrementTick+0xf2>
 80021a4:	4b3d      	ldr	r3, [pc, #244]	@ (800229c <xTaskIncrementTick+0x104>)
 80021a6:	681c      	ldr	r4, [r3, #0]
 80021a8:	3401      	adds	r4, #1
 80021aa:	601c      	str	r4, [r3, #0]
 80021ac:	b9bc      	cbnz	r4, 80021de <xTaskIncrementTick+0x46>
 80021ae:	4b3c      	ldr	r3, [pc, #240]	@ (80022a0 <xTaskIncrementTick+0x108>)
 80021b0:	681a      	ldr	r2, [r3, #0]
 80021b2:	6812      	ldr	r2, [r2, #0]
 80021b4:	b142      	cbz	r2, 80021c8 <xTaskIncrementTick+0x30>
 80021b6:	f04f 0350 	mov.w	r3, #80	@ 0x50
 80021ba:	f383 8811 	msr	BASEPRI, r3
 80021be:	f3bf 8f6f 	isb	sy
 80021c2:	f3bf 8f4f 	dsb	sy
 80021c6:	e7fe      	b.n	80021c6 <xTaskIncrementTick+0x2e>
 80021c8:	4a36      	ldr	r2, [pc, #216]	@ (80022a4 <xTaskIncrementTick+0x10c>)
 80021ca:	6819      	ldr	r1, [r3, #0]
 80021cc:	6810      	ldr	r0, [r2, #0]
 80021ce:	6018      	str	r0, [r3, #0]
 80021d0:	6011      	str	r1, [r2, #0]
 80021d2:	4a35      	ldr	r2, [pc, #212]	@ (80022a8 <xTaskIncrementTick+0x110>)
 80021d4:	6813      	ldr	r3, [r2, #0]
 80021d6:	3301      	adds	r3, #1
 80021d8:	6013      	str	r3, [r2, #0]
 80021da:	f7ff fe79 	bl	8001ed0 <prvResetNextTaskUnblockTime>
 80021de:	4d33      	ldr	r5, [pc, #204]	@ (80022ac <xTaskIncrementTick+0x114>)
 80021e0:	4e33      	ldr	r6, [pc, #204]	@ (80022b0 <xTaskIncrementTick+0x118>)
 80021e2:	682b      	ldr	r3, [r5, #0]
 80021e4:	4f33      	ldr	r7, [pc, #204]	@ (80022b4 <xTaskIncrementTick+0x11c>)
 80021e6:	429c      	cmp	r4, r3
 80021e8:	f04f 0b00 	mov.w	fp, #0
 80021ec:	d212      	bcs.n	8002214 <xTaskIncrementTick+0x7c>
 80021ee:	683a      	ldr	r2, [r7, #0]
 80021f0:	6ad2      	ldr	r2, [r2, #44]	@ 0x2c
 80021f2:	2114      	movs	r1, #20
 80021f4:	434a      	muls	r2, r1
 80021f6:	58b2      	ldr	r2, [r6, r2]
 80021f8:	2a02      	cmp	r2, #2
 80021fa:	4a2f      	ldr	r2, [pc, #188]	@ (80022b8 <xTaskIncrementTick+0x120>)
 80021fc:	6812      	ldr	r2, [r2, #0]
 80021fe:	bf28      	it	cs
 8002200:	f04f 0b01 	movcs.w	fp, #1
 8002204:	2a00      	cmp	r2, #0
 8002206:	bf18      	it	ne
 8002208:	f04f 0b01 	movne.w	fp, #1
 800220c:	4658      	mov	r0, fp
 800220e:	b003      	add	sp, #12
 8002210:	e8bd 8ff0 	ldmia.w	sp!, {r4, r5, r6, r7, r8, r9, sl, fp, pc}
 8002214:	f8df 9088 	ldr.w	r9, [pc, #136]	@ 80022a0 <xTaskIncrementTick+0x108>
 8002218:	f8df a0a4 	ldr.w	sl, [pc, #164]	@ 80022c0 <xTaskIncrementTick+0x128>
 800221c:	f8d9 2000 	ldr.w	r2, [r9]
 8002220:	6812      	ldr	r2, [r2, #0]
 8002222:	b91a      	cbnz	r2, 800222c <xTaskIncrementTick+0x94>
 8002224:	f04f 32ff 	mov.w	r2, #4294967295
 8002228:	602a      	str	r2, [r5, #0]
 800222a:	e7e0      	b.n	80021ee <xTaskIncrementTick+0x56>
 800222c:	f8d9 2000 	ldr.w	r2, [r9]
 8002230:	68d2      	ldr	r2, [r2, #12]
 8002232:	f8d2 800c 	ldr.w	r8, [r2, #12]
 8002236:	f8d8 1004 	ldr.w	r1, [r8, #4]
 800223a:	428c      	cmp	r4, r1
 800223c:	d201      	bcs.n	8002242 <xTaskIncrementTick+0xaa>
 800223e:	6029      	str	r1, [r5, #0]
 8002240:	e7d5      	b.n	80021ee <xTaskIncrementTick+0x56>
 8002242:	f108 0304 	add.w	r3, r8, #4
 8002246:	4618      	mov	r0, r3
 8002248:	9301      	str	r3, [sp, #4]
 800224a:	f7ff f999 	bl	8001580 <uxListRemove>
 800224e:	f8d8 1028 	ldr.w	r1, [r8, #40]	@ 0x28
 8002252:	b119      	cbz	r1, 800225c <xTaskIncrementTick+0xc4>
 8002254:	f108 0018 	add.w	r0, r8, #24
 8002258:	f7ff f992 	bl	8001580 <uxListRemove>
 800225c:	f8d8 002c 	ldr.w	r0, [r8, #44]	@ 0x2c
 8002260:	f8da 1000 	ldr.w	r1, [sl]
 8002264:	2314      	movs	r3, #20
 8002266:	4288      	cmp	r0, r1
 8002268:	bf88      	it	hi
 800226a:	f8ca 0000 	strhi.w	r0, [sl]
 800226e:	9901      	ldr	r1, [sp, #4]
 8002270:	fb03 6000 	mla	r0, r3, r0, r6
 8002274:	f7ff f962 	bl	800153c <vListInsertEnd>
 8002278:	6838      	ldr	r0, [r7, #0]
 800227a:	f8d8 102c 	ldr.w	r1, [r8, #44]	@ 0x2c
 800227e:	6ac2      	ldr	r2, [r0, #44]	@ 0x2c
 8002280:	4291      	cmp	r1, r2
 8002282:	bf28      	it	cs
 8002284:	f04f 0b01 	movcs.w	fp, #1
 8002288:	e7c8      	b.n	800221c <xTaskIncrementTick+0x84>
 800228a:	4a0c      	ldr	r2, [pc, #48]	@ (80022bc <xTaskIncrementTick+0x124>)
 800228c:	6813      	ldr	r3, [r2, #0]
 800228e:	3301      	adds	r3, #1
 8002290:	6013      	str	r3, [r2, #0]
 8002292:	f04f 0b00 	mov.w	fp, #0
 8002296:	e7b9      	b.n	800220c <xTaskIncrementTick+0x74>
 8002298:	200007e4 	.word	0x200007e4
 800229c:	20000804 	.word	0x20000804
 80022a0:	20000850 	.word	0x20000850
 80022a4:	2000084c 	.word	0x2000084c
 80022a8:	200007f0 	.word	0x200007f0
 80022ac:	200007e8 	.word	0x200007e8
 80022b0:	2000087c 	.word	0x2000087c
 80022b4:	20000cdc 	.word	0x20000cdc
 80022b8:	200007f4 	.word	0x200007f4
 80022bc:	200007f8 	.word	0x200007f8
 80022c0:	20000800 	.word	0x20000800

080022c4 <xTaskResumeAll>:
 80022c4:	e92d 41f0 	stmdb	sp!, {r4, r5, r6, r7, r8, lr}
 80022c8:	4c30      	ldr	r4, [pc, #192]	@ (800238c <xTaskResumeAll+0xc8>)
 80022ca:	6823      	ldr	r3, [r4, #0]
 80022cc:	b943      	cbnz	r3, 80022e0 <xTaskResumeAll+0x1c>
 80022ce:	f04f 0350 	mov.w	r3, #80	@ 0x50
 80022d2:	f383 8811 	msr	BASEPRI, r3
 80022d6:	f3bf 8f6f 	isb	sy
 80022da:	f3bf 8f4f 	dsb	sy
 80022de:	e7fe      	b.n	80022de <xTaskResumeAll+0x1a>
 80022e0:	f000 fc28 	bl	8002b34 <vPortEnterCritical>
 80022e4:	6823      	ldr	r3, [r4, #0]
 80022e6:	3b01      	subs	r3, #1
 80022e8:	6023      	str	r3, [r4, #0]
 80022ea:	6824      	ldr	r4, [r4, #0]
 80022ec:	b12c      	cbz	r4, 80022fa <xTaskResumeAll+0x36>
 80022ee:	2400      	movs	r4, #0
 80022f0:	f000 fc40 	bl	8002b74 <vPortExitCritical>
 80022f4:	4620      	mov	r0, r4
 80022f6:	e8bd 81f0 	ldmia.w	sp!, {r4, r5, r6, r7, r8, pc}
 80022fa:	4b25      	ldr	r3, [pc, #148]	@ (8002390 <xTaskResumeAll+0xcc>)
 80022fc:	681b      	ldr	r3, [r3, #0]
 80022fe:	2b00      	cmp	r3, #0
 8002300:	d0f5      	beq.n	80022ee <xTaskResumeAll+0x2a>
 8002302:	4d24      	ldr	r5, [pc, #144]	@ (8002394 <xTaskResumeAll+0xd0>)
 8002304:	4e24      	ldr	r6, [pc, #144]	@ (8002398 <xTaskResumeAll+0xd4>)
 8002306:	f8df 80a0 	ldr.w	r8, [pc, #160]	@ 80023a8 <xTaskResumeAll+0xe4>
 800230a:	e01d      	b.n	8002348 <xTaskResumeAll+0x84>
 800230c:	68eb      	ldr	r3, [r5, #12]
 800230e:	68dc      	ldr	r4, [r3, #12]
 8002310:	1d27      	adds	r7, r4, #4
 8002312:	f104 0018 	add.w	r0, r4, #24
 8002316:	f7ff f933 	bl	8001580 <uxListRemove>
 800231a:	4638      	mov	r0, r7
 800231c:	f7ff f930 	bl	8001580 <uxListRemove>
 8002320:	6ae3      	ldr	r3, [r4, #44]	@ 0x2c
 8002322:	6832      	ldr	r2, [r6, #0]
 8002324:	2014      	movs	r0, #20
 8002326:	4293      	cmp	r3, r2
 8002328:	fb00 8003 	mla	r0, r0, r3, r8
 800232c:	4639      	mov	r1, r7
 800232e:	bf88      	it	hi
 8002330:	6033      	strhi	r3, [r6, #0]
 8002332:	f7ff f903 	bl	800153c <vListInsertEnd>
 8002336:	4b19      	ldr	r3, [pc, #100]	@ (800239c <xTaskResumeAll+0xd8>)
 8002338:	6ae2      	ldr	r2, [r4, #44]	@ 0x2c
 800233a:	681b      	ldr	r3, [r3, #0]
 800233c:	6adb      	ldr	r3, [r3, #44]	@ 0x2c
 800233e:	429a      	cmp	r2, r3
 8002340:	d302      	bcc.n	8002348 <xTaskResumeAll+0x84>
 8002342:	4b17      	ldr	r3, [pc, #92]	@ (80023a0 <xTaskResumeAll+0xdc>)
 8002344:	2201      	movs	r2, #1
 8002346:	601a      	str	r2, [r3, #0]
 8002348:	682b      	ldr	r3, [r5, #0]
 800234a:	2b00      	cmp	r3, #0
 800234c:	d1de      	bne.n	800230c <xTaskResumeAll+0x48>
 800234e:	b10c      	cbz	r4, 8002354 <xTaskResumeAll+0x90>
 8002350:	f7ff fdbe 	bl	8001ed0 <prvResetNextTaskUnblockTime>
 8002354:	4d13      	ldr	r5, [pc, #76]	@ (80023a4 <xTaskResumeAll+0xe0>)
 8002356:	682c      	ldr	r4, [r5, #0]
 8002358:	b144      	cbz	r4, 800236c <xTaskResumeAll+0xa8>
 800235a:	4e11      	ldr	r6, [pc, #68]	@ (80023a0 <xTaskResumeAll+0xdc>)
 800235c:	2701      	movs	r7, #1
 800235e:	f7ff ff1b 	bl	8002198 <xTaskIncrementTick>
 8002362:	b100      	cbz	r0, 8002366 <xTaskResumeAll+0xa2>
 8002364:	6037      	str	r7, [r6, #0]
 8002366:	3c01      	subs	r4, #1
 8002368:	d1f9      	bne.n	800235e <xTaskResumeAll+0x9a>
 800236a:	602c      	str	r4, [r5, #0]
 800236c:	4b0c      	ldr	r3, [pc, #48]	@ (80023a0 <xTaskResumeAll+0xdc>)
 800236e:	681b      	ldr	r3, [r3, #0]
 8002370:	2b00      	cmp	r3, #0
 8002372:	d0bc      	beq.n	80022ee <xTaskResumeAll+0x2a>
 8002374:	f04f 23e0 	mov.w	r3, #3758153728	@ 0xe000e000
 8002378:	f04f 5280 	mov.w	r2, #268435456	@ 0x10000000
 800237c:	f8c3 2d04 	str.w	r2, [r3, #3332]	@ 0xd04
 8002380:	f3bf 8f4f 	dsb	sy
 8002384:	f3bf 8f6f 	isb	sy
 8002388:	2401      	movs	r4, #1
 800238a:	e7b1      	b.n	80022f0 <xTaskResumeAll+0x2c>
 800238c:	200007e4 	.word	0x200007e4
 8002390:	20000808 	.word	0x20000808
 8002394:	20000838 	.word	0x20000838
 8002398:	20000800 	.word	0x20000800
 800239c:	20000cdc 	.word	0x20000cdc
 80023a0:	200007f4 	.word	0x200007f4
 80023a4:	200007f8 	.word	0x200007f8
 80023a8:	2000087c 	.word	0x2000087c

080023ac <vTaskDelay>:
 80023ac:	b508      	push	{r3, lr}
 80023ae:	b950      	cbnz	r0, 80023c6 <vTaskDelay+0x1a>
 80023b0:	f04f 23e0 	mov.w	r3, #3758153728	@ 0xe000e000
 80023b4:	f04f 5280 	mov.w	r2, #268435456	@ 0x10000000
 80023b8:	f8c3 2d04 	str.w	r2, [r3, #3332]	@ 0xd04
 80023bc:	f3bf 8f4f 	dsb	sy
 80023c0:	f3bf 8f6f 	isb	sy
 80023c4:	bd08      	pop	{r3, pc}
 80023c6:	4b0a      	ldr	r3, [pc, #40]	@ (80023f0 <vTaskDelay+0x44>)
 80023c8:	6819      	ldr	r1, [r3, #0]
 80023ca:	b141      	cbz	r1, 80023de <vTaskDelay+0x32>
 80023cc:	f04f 0350 	mov.w	r3, #80	@ 0x50
 80023d0:	f383 8811 	msr	BASEPRI, r3
 80023d4:	f3bf 8f6f 	isb	sy
 80023d8:	f3bf 8f4f 	dsb	sy
 80023dc:	e7fe      	b.n	80023dc <vTaskDelay+0x30>
 80023de:	f7ff fecd 	bl	800217c <vTaskSuspendAll>
 80023e2:	f7ff fd3d 	bl	8001e60 <prvAddCurrentTaskToDelayedList>
 80023e6:	f7ff ff6d 	bl	80022c4 <xTaskResumeAll>
 80023ea:	2800      	cmp	r0, #0
 80023ec:	d0e0      	beq.n	80023b0 <vTaskDelay+0x4>
 80023ee:	e7e9      	b.n	80023c4 <vTaskDelay+0x18>
 80023f0:	200007e4 	.word	0x200007e4

080023f4 <vTaskSwitchContext>:
 80023f4:	4b17      	ldr	r3, [pc, #92]	@ (8002454 <vTaskSwitchContext+0x60>)
 80023f6:	681a      	ldr	r2, [r3, #0]
 80023f8:	4b17      	ldr	r3, [pc, #92]	@ (8002458 <vTaskSwitchContext+0x64>)
 80023fa:	b570      	push	{r4, r5, r6, lr}
 80023fc:	b112      	cbz	r2, 8002404 <vTaskSwitchContext+0x10>
 80023fe:	2201      	movs	r2, #1
 8002400:	601a      	str	r2, [r3, #0]
 8002402:	bd70      	pop	{r4, r5, r6, pc}
 8002404:	4d15      	ldr	r5, [pc, #84]	@ (800245c <vTaskSwitchContext+0x68>)
 8002406:	601a      	str	r2, [r3, #0]
 8002408:	682a      	ldr	r2, [r5, #0]
 800240a:	4915      	ldr	r1, [pc, #84]	@ (8002460 <vTaskSwitchContext+0x6c>)
 800240c:	2614      	movs	r6, #20
 800240e:	fb06 f302 	mul.w	r3, r6, r2
 8002412:	18c8      	adds	r0, r1, r3
 8002414:	58cc      	ldr	r4, [r1, r3]
 8002416:	b18c      	cbz	r4, 800243c <vTaskSwitchContext+0x48>
 8002418:	6844      	ldr	r4, [r0, #4]
 800241a:	3308      	adds	r3, #8
 800241c:	6864      	ldr	r4, [r4, #4]
 800241e:	6044      	str	r4, [r0, #4]
 8002420:	440b      	add	r3, r1
 8002422:	429c      	cmp	r4, r3
 8002424:	bf04      	itt	eq
 8002426:	6863      	ldreq	r3, [r4, #4]
 8002428:	6043      	streq	r3, [r0, #4]
 800242a:	2314      	movs	r3, #20
 800242c:	fb03 1102 	mla	r1, r3, r2, r1
 8002430:	684b      	ldr	r3, [r1, #4]
 8002432:	68d9      	ldr	r1, [r3, #12]
 8002434:	4b0b      	ldr	r3, [pc, #44]	@ (8002464 <vTaskSwitchContext+0x70>)
 8002436:	6019      	str	r1, [r3, #0]
 8002438:	602a      	str	r2, [r5, #0]
 800243a:	e7e2      	b.n	8002402 <vTaskSwitchContext+0xe>
 800243c:	b942      	cbnz	r2, 8002450 <vTaskSwitchContext+0x5c>
 800243e:	f04f 0350 	mov.w	r3, #80	@ 0x50
 8002442:	f383 8811 	msr	BASEPRI, r3
 8002446:	f3bf 8f6f 	isb	sy
 800244a:	f3bf 8f4f 	dsb	sy
 800244e:	e7fe      	b.n	800244e <vTaskSwitchContext+0x5a>
 8002450:	3a01      	subs	r2, #1
 8002452:	e7dc      	b.n	800240e <vTaskSwitchContext+0x1a>
 8002454:	200007e4 	.word	0x200007e4
 8002458:	200007f4 	.word	0x200007f4
 800245c:	20000800 	.word	0x20000800
 8002460:	2000087c 	.word	0x2000087c
 8002464:	20000cdc 	.word	0x20000cdc

08002468 <vTaskPlaceOnEventList>:
 8002468:	b510      	push	{r4, lr}
 800246a:	460c      	mov	r4, r1
 800246c:	b940      	cbnz	r0, 8002480 <vTaskPlaceOnEventList+0x18>
 800246e:	f04f 0350 	mov.w	r3, #80	@ 0x50
 8002472:	f383 8811 	msr	BASEPRI, r3
 8002476:	f3bf 8f6f 	isb	sy
 800247a:	f3bf 8f4f 	dsb	sy
 800247e:	e7fe      	b.n	800247e <vTaskPlaceOnEventList+0x16>
 8002480:	4b05      	ldr	r3, [pc, #20]	@ (8002498 <vTaskPlaceOnEventList+0x30>)
 8002482:	6819      	ldr	r1, [r3, #0]
 8002484:	3118      	adds	r1, #24
 8002486:	f7ff f864 	bl	8001552 <vListInsert>
 800248a:	4620      	mov	r0, r4
 800248c:	2101      	movs	r1, #1
 800248e:	e8bd 4010 	ldmia.w	sp!, {r4, lr}
 8002492:	f7ff bce5 	b.w	8001e60 <prvAddCurrentTaskToDelayedList>
 8002496:	bf00      	nop
 8002498:	20000cdc 	.word	0x20000cdc

0800249c <vTaskPlaceOnEventListRestricted>:
 800249c:	b538      	push	{r3, r4, r5, lr}
 800249e:	460d      	mov	r5, r1
 80024a0:	4614      	mov	r4, r2
 80024a2:	b940      	cbnz	r0, 80024b6 <vTaskPlaceOnEventListRestricted+0x1a>
 80024a4:	f04f 0350 	mov.w	r3, #80	@ 0x50
 80024a8:	f383 8811 	msr	BASEPRI, r3
 80024ac:	f3bf 8f6f 	isb	sy
 80024b0:	f3bf 8f4f 	dsb	sy
 80024b4:	e7fe      	b.n	80024b4 <vTaskPlaceOnEventListRestricted+0x18>
 80024b6:	4b07      	ldr	r3, [pc, #28]	@ (80024d4 <vTaskPlaceOnEventListRestricted+0x38>)
 80024b8:	6819      	ldr	r1, [r3, #0]
 80024ba:	3118      	adds	r1, #24
 80024bc:	f7ff f83e 	bl	800153c <vListInsertEnd>
 80024c0:	2c00      	cmp	r4, #0
 80024c2:	4621      	mov	r1, r4
 80024c4:	bf0c      	ite	eq
 80024c6:	4628      	moveq	r0, r5
 80024c8:	f04f 30ff 	movne.w	r0, #4294967295
 80024cc:	e8bd 4038 	ldmia.w	sp!, {r3, r4, r5, lr}
 80024d0:	f7ff bcc6 	b.w	8001e60 <prvAddCurrentTaskToDelayedList>
 80024d4:	20000cdc 	.word	0x20000cdc

080024d8 <xTaskRemoveFromEventList>:
 80024d8:	b538      	push	{r3, r4, r5, lr}
 80024da:	68c3      	ldr	r3, [r0, #12]
 80024dc:	68dc      	ldr	r4, [r3, #12]
 80024de:	b944      	cbnz	r4, 80024f2 <xTaskRemoveFromEventList+0x1a>
 80024e0:	f04f 0350 	mov.w	r3, #80	@ 0x50
 80024e4:	f383 8811 	msr	BASEPRI, r3
 80024e8:	f3bf 8f6f 	isb	sy
 80024ec:	f3bf 8f4f 	dsb	sy
 80024f0:	e7fe      	b.n	80024f0 <xTaskRemoveFromEventList+0x18>
 80024f2:	f104 0518 	add.w	r5, r4, #24
 80024f6:	4628      	mov	r0, r5
 80024f8:	f7ff f842 	bl	8001580 <uxListRemove>
 80024fc:	4b10      	ldr	r3, [pc, #64]	@ (8002540 <xTaskRemoveFromEventList+0x68>)
 80024fe:	681b      	ldr	r3, [r3, #0]
 8002500:	b9db      	cbnz	r3, 800253a <xTaskRemoveFromEventList+0x62>
 8002502:	1d25      	adds	r5, r4, #4
 8002504:	4628      	mov	r0, r5
 8002506:	f7ff f83b 	bl	8001580 <uxListRemove>
 800250a:	4a0e      	ldr	r2, [pc, #56]	@ (8002544 <xTaskRemoveFromEventList+0x6c>)
 800250c:	6ae3      	ldr	r3, [r4, #44]	@ 0x2c
 800250e:	6811      	ldr	r1, [r2, #0]
 8002510:	428b      	cmp	r3, r1
 8002512:	bf88      	it	hi
 8002514:	6013      	strhi	r3, [r2, #0]
 8002516:	4a0c      	ldr	r2, [pc, #48]	@ (8002548 <xTaskRemoveFromEventList+0x70>)
 8002518:	2014      	movs	r0, #20
 800251a:	4629      	mov	r1, r5
 800251c:	fb00 2003 	mla	r0, r0, r3, r2
 8002520:	f7ff f80c 	bl	800153c <vListInsertEnd>
 8002524:	4b09      	ldr	r3, [pc, #36]	@ (800254c <xTaskRemoveFromEventList+0x74>)
 8002526:	6ae2      	ldr	r2, [r4, #44]	@ 0x2c
 8002528:	681b      	ldr	r3, [r3, #0]
 800252a:	6adb      	ldr	r3, [r3, #44]	@ 0x2c
 800252c:	429a      	cmp	r2, r3
 800252e:	bf83      	ittte	hi
 8002530:	4b07      	ldrhi	r3, [pc, #28]	@ (8002550 <xTaskRemoveFromEventList+0x78>)
 8002532:	2001      	movhi	r0, #1
 8002534:	6018      	strhi	r0, [r3, #0]
 8002536:	2000      	movls	r0, #0
 8002538:	bd38      	pop	{r3, r4, r5, pc}
 800253a:	4806      	ldr	r0, [pc, #24]	@ (8002554 <xTaskRemoveFromEventList+0x7c>)
 800253c:	4629      	mov	r1, r5
 800253e:	e7ef      	b.n	8002520 <xTaskRemoveFromEventList+0x48>
 8002540:	200007e4 	.word	0x200007e4
 8002544:	20000800 	.word	0x20000800
 8002548:	2000087c 	.word	0x2000087c
 800254c:	20000cdc 	.word	0x20000cdc
 8002550:	200007f4 	.word	0x200007f4
 8002554:	20000838 	.word	0x20000838

08002558 <vTaskInternalSetTimeOutState>:
 8002558:	4b03      	ldr	r3, [pc, #12]	@ (8002568 <vTaskInternalSetTimeOutState+0x10>)
 800255a:	681b      	ldr	r3, [r3, #0]
 800255c:	6003      	str	r3, [r0, #0]
 800255e:	4b03      	ldr	r3, [pc, #12]	@ (800256c <vTaskInternalSetTimeOutState+0x14>)
 8002560:	681b      	ldr	r3, [r3, #0]
 8002562:	6043      	str	r3, [r0, #4]
 8002564:	4770      	bx	lr
 8002566:	bf00      	nop
 8002568:	200007f0 	.word	0x200007f0
 800256c:	20000804 	.word	0x20000804

08002570 <xTaskCheckForTimeOut>:
 8002570:	b570      	push	{r4, r5, r6, lr}
 8002572:	460c      	mov	r4, r1
 8002574:	4605      	mov	r5, r0
 8002576:	b940      	cbnz	r0, 800258a <xTaskCheckForTimeOut+0x1a>
 8002578:	f04f 0350 	mov.w	r3, #80	@ 0x50
 800257c:	f383 8811 	msr	BASEPRI, r3
 8002580:	f3bf 8f6f 	isb	sy
 8002584:	f3bf 8f4f 	dsb	sy
 8002588:	e7fe      	b.n	8002588 <xTaskCheckForTimeOut+0x18>
 800258a:	b941      	cbnz	r1, 800259e <xTaskCheckForTimeOut+0x2e>
 800258c:	f04f 0350 	mov.w	r3, #80	@ 0x50
 8002590:	f383 8811 	msr	BASEPRI, r3
 8002594:	f3bf 8f6f 	isb	sy
 8002598:	f3bf 8f4f 	dsb	sy
 800259c:	e7fe      	b.n	800259c <xTaskCheckForTimeOut+0x2c>
 800259e:	f000 fac9 	bl	8002b34 <vPortEnterCritical>
 80025a2:	4b0f      	ldr	r3, [pc, #60]	@ (80025e0 <xTaskCheckForTimeOut+0x70>)
 80025a4:	6819      	ldr	r1, [r3, #0]
 80025a6:	6823      	ldr	r3, [r4, #0]
 80025a8:	1c5a      	adds	r2, r3, #1
 80025aa:	d010      	beq.n	80025ce <xTaskCheckForTimeOut+0x5e>
 80025ac:	480d      	ldr	r0, [pc, #52]	@ (80025e4 <xTaskCheckForTimeOut+0x74>)
 80025ae:	682e      	ldr	r6, [r5, #0]
 80025b0:	6800      	ldr	r0, [r0, #0]
 80025b2:	686a      	ldr	r2, [r5, #4]
 80025b4:	4286      	cmp	r6, r0
 80025b6:	d001      	beq.n	80025bc <xTaskCheckForTimeOut+0x4c>
 80025b8:	428a      	cmp	r2, r1
 80025ba:	d90f      	bls.n	80025dc <xTaskCheckForTimeOut+0x6c>
 80025bc:	1a88      	subs	r0, r1, r2
 80025be:	4283      	cmp	r3, r0
 80025c0:	d90a      	bls.n	80025d8 <xTaskCheckForTimeOut+0x68>
 80025c2:	1a5b      	subs	r3, r3, r1
 80025c4:	4413      	add	r3, r2
 80025c6:	6023      	str	r3, [r4, #0]
 80025c8:	4628      	mov	r0, r5
 80025ca:	f7ff ffc5 	bl	8002558 <vTaskInternalSetTimeOutState>
 80025ce:	2400      	movs	r4, #0
 80025d0:	f000 fad0 	bl	8002b74 <vPortExitCritical>
 80025d4:	4620      	mov	r0, r4
 80025d6:	bd70      	pop	{r4, r5, r6, pc}
 80025d8:	2300      	movs	r3, #0
 80025da:	6023      	str	r3, [r4, #0]
 80025dc:	2401      	movs	r4, #1
 80025de:	e7f7      	b.n	80025d0 <xTaskCheckForTimeOut+0x60>
 80025e0:	20000804 	.word	0x20000804
 80025e4:	200007f0 	.word	0x200007f0

080025e8 <vTaskMissedYield>:
 80025e8:	4b01      	ldr	r3, [pc, #4]	@ (80025f0 <vTaskMissedYield+0x8>)
 80025ea:	2201      	movs	r2, #1
 80025ec:	601a      	str	r2, [r3, #0]
 80025ee:	4770      	bx	lr
 80025f0:	200007f4 	.word	0x200007f4

080025f4 <xTaskGetSchedulerState>:
 80025f4:	4b05      	ldr	r3, [pc, #20]	@ (800260c <xTaskGetSchedulerState+0x18>)
 80025f6:	681b      	ldr	r3, [r3, #0]
 80025f8:	b133      	cbz	r3, 8002608 <xTaskGetSchedulerState+0x14>
 80025fa:	4b05      	ldr	r3, [pc, #20]	@ (8002610 <xTaskGetSchedulerState+0x1c>)
 80025fc:	6818      	ldr	r0, [r3, #0]
 80025fe:	fab0 f080 	clz	r0, r0
 8002602:	0940      	lsrs	r0, r0, #5
 8002604:	0040      	lsls	r0, r0, #1
 8002606:	4770      	bx	lr
 8002608:	2001      	movs	r0, #1
 800260a:	4770      	bx	lr
 800260c:	200007fc 	.word	0x200007fc
 8002610:	200007e4 	.word	0x200007e4

08002614 <xTaskPriorityDisinherit>:
 8002614:	b538      	push	{r3, r4, r5, lr}
 8002616:	b908      	cbnz	r0, 800261c <xTaskPriorityDisinherit+0x8>
 8002618:	2000      	movs	r0, #0
 800261a:	bd38      	pop	{r3, r4, r5, pc}
 800261c:	4b1b      	ldr	r3, [pc, #108]	@ (800268c <xTaskPriorityDisinherit+0x78>)
 800261e:	681c      	ldr	r4, [r3, #0]
 8002620:	4284      	cmp	r4, r0
 8002622:	d008      	beq.n	8002636 <xTaskPriorityDisinherit+0x22>
 8002624:	f04f 0350 	mov.w	r3, #80	@ 0x50
 8002628:	f383 8811 	msr	BASEPRI, r3
 800262c:	f3bf 8f6f 	isb	sy
 8002630:	f3bf 8f4f 	dsb	sy
 8002634:	e7fe      	b.n	8002634 <xTaskPriorityDisinherit+0x20>
 8002636:	6d23      	ldr	r3, [r4, #80]	@ 0x50
 8002638:	b943      	cbnz	r3, 800264c <xTaskPriorityDisinherit+0x38>
 800263a:	f04f 0350 	mov.w	r3, #80	@ 0x50
 800263e:	f383 8811 	msr	BASEPRI, r3
 8002642:	f3bf 8f6f 	isb	sy
 8002646:	f3bf 8f4f 	dsb	sy
 800264a:	e7fe      	b.n	800264a <xTaskPriorityDisinherit+0x36>
 800264c:	6ae1      	ldr	r1, [r4, #44]	@ 0x2c
 800264e:	6ce2      	ldr	r2, [r4, #76]	@ 0x4c
 8002650:	3b01      	subs	r3, #1
 8002652:	4291      	cmp	r1, r2
 8002654:	6523      	str	r3, [r4, #80]	@ 0x50
 8002656:	d0df      	beq.n	8002618 <xTaskPriorityDisinherit+0x4>
 8002658:	2b00      	cmp	r3, #0
 800265a:	d1dd      	bne.n	8002618 <xTaskPriorityDisinherit+0x4>
 800265c:	1d25      	adds	r5, r4, #4
 800265e:	4628      	mov	r0, r5
 8002660:	f7fe ff8e 	bl	8001580 <uxListRemove>
 8002664:	6ce3      	ldr	r3, [r4, #76]	@ 0x4c
 8002666:	62e3      	str	r3, [r4, #44]	@ 0x2c
 8002668:	f1c3 0238 	rsb	r2, r3, #56	@ 0x38
 800266c:	61a2      	str	r2, [r4, #24]
 800266e:	4a08      	ldr	r2, [pc, #32]	@ (8002690 <xTaskPriorityDisinherit+0x7c>)
 8002670:	6811      	ldr	r1, [r2, #0]
 8002672:	428b      	cmp	r3, r1
 8002674:	bf88      	it	hi
 8002676:	6013      	strhi	r3, [r2, #0]
 8002678:	4a06      	ldr	r2, [pc, #24]	@ (8002694 <xTaskPriorityDisinherit+0x80>)
 800267a:	2014      	movs	r0, #20
 800267c:	fb00 2003 	mla	r0, r0, r3, r2
 8002680:	4629      	mov	r1, r5
 8002682:	f7fe ff5b 	bl	800153c <vListInsertEnd>
 8002686:	2001      	movs	r0, #1
 8002688:	e7c7      	b.n	800261a <xTaskPriorityDisinherit+0x6>
 800268a:	bf00      	nop
 800268c:	20000cdc 	.word	0x20000cdc
 8002690:	20000800 	.word	0x20000800
 8002694:	2000087c 	.word	0x2000087c

08002698 <prvInsertTimerInActiveList>:
 8002698:	4291      	cmp	r1, r2
 800269a:	b508      	push	{r3, lr}
 800269c:	6041      	str	r1, [r0, #4]
 800269e:	6100      	str	r0, [r0, #16]
 80026a0:	d80a      	bhi.n	80026b8 <prvInsertTimerInActiveList+0x20>
 80026a2:	1ad2      	subs	r2, r2, r3
 80026a4:	6983      	ldr	r3, [r0, #24]
 80026a6:	429a      	cmp	r2, r3
 80026a8:	d20d      	bcs.n	80026c6 <prvInsertTimerInActiveList+0x2e>
 80026aa:	4b08      	ldr	r3, [pc, #32]	@ (80026cc <prvInsertTimerInActiveList+0x34>)
 80026ac:	1d01      	adds	r1, r0, #4
 80026ae:	6818      	ldr	r0, [r3, #0]
 80026b0:	f7fe ff4f 	bl	8001552 <vListInsert>
 80026b4:	2000      	movs	r0, #0
 80026b6:	bd08      	pop	{r3, pc}
 80026b8:	429a      	cmp	r2, r3
 80026ba:	d201      	bcs.n	80026c0 <prvInsertTimerInActiveList+0x28>
 80026bc:	4299      	cmp	r1, r3
 80026be:	d202      	bcs.n	80026c6 <prvInsertTimerInActiveList+0x2e>
 80026c0:	4b03      	ldr	r3, [pc, #12]	@ (80026d0 <prvInsertTimerInActiveList+0x38>)
 80026c2:	1d01      	adds	r1, r0, #4
 80026c4:	e7f3      	b.n	80026ae <prvInsertTimerInActiveList+0x16>
 80026c6:	2001      	movs	r0, #1
 80026c8:	e7f5      	b.n	80026b6 <prvInsertTimerInActiveList+0x1e>
 80026ca:	bf00      	nop
 80026cc:	20000ddc 	.word	0x20000ddc
 80026d0:	20000de0 	.word	0x20000de0

080026d4 <prvCheckForValidListAndQueue>:
 80026d4:	b5f7      	push	{r0, r1, r2, r4, r5, r6, r7, lr}
 80026d6:	4c11      	ldr	r4, [pc, #68]	@ (800271c <prvCheckForValidListAndQueue+0x48>)
 80026d8:	f000 fa2c 	bl	8002b34 <vPortEnterCritical>
 80026dc:	6825      	ldr	r5, [r4, #0]
 80026de:	b9bd      	cbnz	r5, 8002710 <prvCheckForValidListAndQueue+0x3c>
 80026e0:	4f0f      	ldr	r7, [pc, #60]	@ (8002720 <prvCheckForValidListAndQueue+0x4c>)
 80026e2:	4e10      	ldr	r6, [pc, #64]	@ (8002724 <prvCheckForValidListAndQueue+0x50>)
 80026e4:	4638      	mov	r0, r7
 80026e6:	f7fe ff1b 	bl	8001520 <vListInitialise>
 80026ea:	4630      	mov	r0, r6
 80026ec:	f7fe ff18 	bl	8001520 <vListInitialise>
 80026f0:	4b0d      	ldr	r3, [pc, #52]	@ (8002728 <prvCheckForValidListAndQueue+0x54>)
 80026f2:	4a0e      	ldr	r2, [pc, #56]	@ (800272c <prvCheckForValidListAndQueue+0x58>)
 80026f4:	601f      	str	r7, [r3, #0]
 80026f6:	4b0e      	ldr	r3, [pc, #56]	@ (8002730 <prvCheckForValidListAndQueue+0x5c>)
 80026f8:	2110      	movs	r1, #16
 80026fa:	601e      	str	r6, [r3, #0]
 80026fc:	200a      	movs	r0, #10
 80026fe:	4b0d      	ldr	r3, [pc, #52]	@ (8002734 <prvCheckForValidListAndQueue+0x60>)
 8002700:	9500      	str	r5, [sp, #0]
 8002702:	f7ff f818 	bl	8001736 <xQueueGenericCreateStatic>
 8002706:	6020      	str	r0, [r4, #0]
 8002708:	b110      	cbz	r0, 8002710 <prvCheckForValidListAndQueue+0x3c>
 800270a:	490b      	ldr	r1, [pc, #44]	@ (8002738 <prvCheckForValidListAndQueue+0x64>)
 800270c:	f7ff fac6 	bl	8001c9c <vQueueAddToRegistry>
 8002710:	b003      	add	sp, #12
 8002712:	e8bd 40f0 	ldmia.w	sp!, {r4, r5, r6, r7, lr}
 8002716:	f000 ba2d 	b.w	8002b74 <vPortExitCritical>
 800271a:	bf00      	nop
 800271c:	20000dd8 	.word	0x20000dd8
 8002720:	20000df8 	.word	0x20000df8
 8002724:	20000de4 	.word	0x20000de4
 8002728:	20000de0 	.word	0x20000de0
 800272c:	20000d30 	.word	0x20000d30
 8002730:	20000ddc 	.word	0x20000ddc
 8002734:	20000ce0 	.word	0x20000ce0
 8002738:	08003a24 	.word	0x08003a24

0800273c <xTimerCreateTimerTask>:
 800273c:	b510      	push	{r4, lr}
 800273e:	b088      	sub	sp, #32
 8002740:	f7ff ffc8 	bl	80026d4 <prvCheckForValidListAndQueue>
 8002744:	4b12      	ldr	r3, [pc, #72]	@ (8002790 <xTimerCreateTimerTask+0x54>)
 8002746:	681b      	ldr	r3, [r3, #0]
 8002748:	b1b3      	cbz	r3, 8002778 <xTimerCreateTimerTask+0x3c>
 800274a:	2400      	movs	r4, #0
 800274c:	aa07      	add	r2, sp, #28
 800274e:	a906      	add	r1, sp, #24
 8002750:	a805      	add	r0, sp, #20
 8002752:	e9cd 4405 	strd	r4, r4, [sp, #20]
 8002756:	f7fe fed7 	bl	8001508 <vApplicationGetTimerTaskMemory>
 800275a:	9b05      	ldr	r3, [sp, #20]
 800275c:	9302      	str	r3, [sp, #8]
 800275e:	9b06      	ldr	r3, [sp, #24]
 8002760:	9301      	str	r3, [sp, #4]
 8002762:	2302      	movs	r3, #2
 8002764:	9300      	str	r3, [sp, #0]
 8002766:	9a07      	ldr	r2, [sp, #28]
 8002768:	490a      	ldr	r1, [pc, #40]	@ (8002794 <xTimerCreateTimerTask+0x58>)
 800276a:	480b      	ldr	r0, [pc, #44]	@ (8002798 <xTimerCreateTimerTask+0x5c>)
 800276c:	4623      	mov	r3, r4
 800276e:	f7ff fc58 	bl	8002022 <xTaskCreateStatic>
 8002772:	4b0a      	ldr	r3, [pc, #40]	@ (800279c <xTimerCreateTimerTask+0x60>)
 8002774:	6018      	str	r0, [r3, #0]
 8002776:	b940      	cbnz	r0, 800278a <xTimerCreateTimerTask+0x4e>
 8002778:	f04f 0350 	mov.w	r3, #80	@ 0x50
 800277c:	f383 8811 	msr	BASEPRI, r3
 8002780:	f3bf 8f6f 	isb	sy
 8002784:	f3bf 8f4f 	dsb	sy
 8002788:	e7fe      	b.n	8002788 <xTimerCreateTimerTask+0x4c>
 800278a:	2001      	movs	r0, #1
 800278c:	b008      	add	sp, #32
 800278e:	bd10      	pop	{r4, pc}
 8002790:	20000dd8 	.word	0x20000dd8
 8002794:	08003a29 	.word	0x08003a29
 8002798:	0800289d 	.word	0x0800289d
 800279c:	20000dd4 	.word	0x20000dd4

080027a0 <xTimerGenericCommand>:
 80027a0:	b57f      	push	{r0, r1, r2, r3, r4, r5, r6, lr}
 80027a2:	4616      	mov	r6, r2
 80027a4:	4604      	mov	r4, r0
 80027a6:	461a      	mov	r2, r3
 80027a8:	b940      	cbnz	r0, 80027bc <xTimerGenericCommand+0x1c>
 80027aa:	f04f 0350 	mov.w	r3, #80	@ 0x50
 80027ae:	f383 8811 	msr	BASEPRI, r3
 80027b2:	f3bf 8f6f 	isb	sy
 80027b6:	f3bf 8f4f 	dsb	sy
 80027ba:	e7fe      	b.n	80027ba <xTimerGenericCommand+0x1a>
 80027bc:	4d0d      	ldr	r5, [pc, #52]	@ (80027f4 <xTimerGenericCommand+0x54>)
 80027be:	6828      	ldr	r0, [r5, #0]
 80027c0:	b180      	cbz	r0, 80027e4 <xTimerGenericCommand+0x44>
 80027c2:	2905      	cmp	r1, #5
 80027c4:	e9cd 1600 	strd	r1, r6, [sp]
 80027c8:	9402      	str	r4, [sp, #8]
 80027ca:	dc0d      	bgt.n	80027e8 <xTimerGenericCommand+0x48>
 80027cc:	f7ff ff12 	bl	80025f4 <xTaskGetSchedulerState>
 80027d0:	2300      	movs	r3, #0
 80027d2:	2802      	cmp	r0, #2
 80027d4:	bf08      	it	eq
 80027d6:	9a08      	ldreq	r2, [sp, #32]
 80027d8:	6828      	ldr	r0, [r5, #0]
 80027da:	bf18      	it	ne
 80027dc:	461a      	movne	r2, r3
 80027de:	4669      	mov	r1, sp
 80027e0:	f7ff f85e 	bl	80018a0 <xQueueGenericSend>
 80027e4:	b004      	add	sp, #16
 80027e6:	bd70      	pop	{r4, r5, r6, pc}
 80027e8:	2300      	movs	r3, #0
 80027ea:	4669      	mov	r1, sp
 80027ec:	f7ff f90a 	bl	8001a04 <xQueueGenericSendFromISR>
 80027f0:	e7f8      	b.n	80027e4 <xTimerGenericCommand+0x44>
 80027f2:	bf00      	nop
 80027f4:	20000dd8 	.word	0x20000dd8

080027f8 <prvSampleTimeNow>:
 80027f8:	e92d 47f3 	stmdb	sp!, {r0, r1, r4, r5, r6, r7, r8, r9, sl, lr}
 80027fc:	f8df 8098 	ldr.w	r8, [pc, #152]	@ 8002898 <prvSampleTimeNow+0xa0>
 8002800:	4606      	mov	r6, r0
 8002802:	f7ff fcc3 	bl	800218c <xTaskGetTickCount>
 8002806:	f8d8 3000 	ldr.w	r3, [r8]
 800280a:	4283      	cmp	r3, r0
 800280c:	4605      	mov	r5, r0
 800280e:	d909      	bls.n	8002824 <prvSampleTimeNow+0x2c>
 8002810:	4f1f      	ldr	r7, [pc, #124]	@ (8002890 <prvSampleTimeNow+0x98>)
 8002812:	683b      	ldr	r3, [r7, #0]
 8002814:	681a      	ldr	r2, [r3, #0]
 8002816:	b96a      	cbnz	r2, 8002834 <prvSampleTimeNow+0x3c>
 8002818:	4a1e      	ldr	r2, [pc, #120]	@ (8002894 <prvSampleTimeNow+0x9c>)
 800281a:	6811      	ldr	r1, [r2, #0]
 800281c:	6039      	str	r1, [r7, #0]
 800281e:	6013      	str	r3, [r2, #0]
 8002820:	2301      	movs	r3, #1
 8002822:	e000      	b.n	8002826 <prvSampleTimeNow+0x2e>
 8002824:	2300      	movs	r3, #0
 8002826:	4628      	mov	r0, r5
 8002828:	6033      	str	r3, [r6, #0]
 800282a:	f8c8 5000 	str.w	r5, [r8]
 800282e:	b002      	add	sp, #8
 8002830:	e8bd 87f0 	ldmia.w	sp!, {r4, r5, r6, r7, r8, r9, sl, pc}
 8002834:	68db      	ldr	r3, [r3, #12]
 8002836:	68dc      	ldr	r4, [r3, #12]
 8002838:	f8d3 9000 	ldr.w	r9, [r3]
 800283c:	f104 0a04 	add.w	sl, r4, #4
 8002840:	4650      	mov	r0, sl
 8002842:	f7fe fe9d 	bl	8001580 <uxListRemove>
 8002846:	6a23      	ldr	r3, [r4, #32]
 8002848:	4620      	mov	r0, r4
 800284a:	4798      	blx	r3
 800284c:	f894 3028 	ldrb.w	r3, [r4, #40]	@ 0x28
 8002850:	075b      	lsls	r3, r3, #29
 8002852:	d5de      	bpl.n	8002812 <prvSampleTimeNow+0x1a>
 8002854:	69a3      	ldr	r3, [r4, #24]
 8002856:	444b      	add	r3, r9
 8002858:	4599      	cmp	r9, r3
 800285a:	d206      	bcs.n	800286a <prvSampleTimeNow+0x72>
 800285c:	6838      	ldr	r0, [r7, #0]
 800285e:	6063      	str	r3, [r4, #4]
 8002860:	6124      	str	r4, [r4, #16]
 8002862:	4651      	mov	r1, sl
 8002864:	f7fe fe75 	bl	8001552 <vListInsert>
 8002868:	e7d3      	b.n	8002812 <prvSampleTimeNow+0x1a>
 800286a:	2300      	movs	r3, #0
 800286c:	9300      	str	r3, [sp, #0]
 800286e:	464a      	mov	r2, r9
 8002870:	4619      	mov	r1, r3
 8002872:	4620      	mov	r0, r4
 8002874:	f7ff ff94 	bl	80027a0 <xTimerGenericCommand>
 8002878:	2800      	cmp	r0, #0
 800287a:	d1ca      	bne.n	8002812 <prvSampleTimeNow+0x1a>
 800287c:	f04f 0350 	mov.w	r3, #80	@ 0x50
 8002880:	f383 8811 	msr	BASEPRI, r3
 8002884:	f3bf 8f6f 	isb	sy
 8002888:	f3bf 8f4f 	dsb	sy
 800288c:	e7fe      	b.n	800288c <prvSampleTimeNow+0x94>
 800288e:	bf00      	nop
 8002890:	20000de0 	.word	0x20000de0
 8002894:	20000ddc 	.word	0x20000ddc
 8002898:	20000dd0 	.word	0x20000dd0

0800289c <prvTimerTask>:
 800289c:	e92d 43f0 	stmdb	sp!, {r4, r5, r6, r7, r8, r9, lr}
 80028a0:	4d6e      	ldr	r5, [pc, #440]	@ (8002a5c <prvTimerTask+0x1c0>)
 80028a2:	4e6f      	ldr	r6, [pc, #444]	@ (8002a60 <prvTimerTask+0x1c4>)
 80028a4:	b089      	sub	sp, #36	@ 0x24
 80028a6:	682b      	ldr	r3, [r5, #0]
 80028a8:	f8d3 8000 	ldr.w	r8, [r3]
 80028ac:	f1b8 0f00 	cmp.w	r8, #0
 80028b0:	d035      	beq.n	800291e <prvTimerTask+0x82>
 80028b2:	68db      	ldr	r3, [r3, #12]
 80028b4:	f8d3 8000 	ldr.w	r8, [r3]
 80028b8:	2400      	movs	r4, #0
 80028ba:	f7ff fc5f 	bl	800217c <vTaskSuspendAll>
 80028be:	a804      	add	r0, sp, #16
 80028c0:	f7ff ff9a 	bl	80027f8 <prvSampleTimeNow>
 80028c4:	9b04      	ldr	r3, [sp, #16]
 80028c6:	4681      	mov	r9, r0
 80028c8:	2b00      	cmp	r3, #0
 80028ca:	d169      	bne.n	80029a0 <prvTimerTask+0x104>
 80028cc:	2c00      	cmp	r4, #0
 80028ce:	d14c      	bne.n	800296a <prvTimerTask+0xce>
 80028d0:	4540      	cmp	r0, r8
 80028d2:	d350      	bcc.n	8002976 <prvTimerTask+0xda>
 80028d4:	f7ff fcf6 	bl	80022c4 <xTaskResumeAll>
 80028d8:	682b      	ldr	r3, [r5, #0]
 80028da:	68db      	ldr	r3, [r3, #12]
 80028dc:	68df      	ldr	r7, [r3, #12]
 80028de:	1d38      	adds	r0, r7, #4
 80028e0:	f7fe fe4e 	bl	8001580 <uxListRemove>
 80028e4:	f897 3028 	ldrb.w	r3, [r7, #40]	@ 0x28
 80028e8:	0758      	lsls	r0, r3, #29
 80028ea:	d51a      	bpl.n	8002922 <prvTimerTask+0x86>
 80028ec:	69b9      	ldr	r1, [r7, #24]
 80028ee:	4643      	mov	r3, r8
 80028f0:	464a      	mov	r2, r9
 80028f2:	4441      	add	r1, r8
 80028f4:	4638      	mov	r0, r7
 80028f6:	f7ff fecf 	bl	8002698 <prvInsertTimerInActiveList>
 80028fa:	b1b0      	cbz	r0, 800292a <prvTimerTask+0x8e>
 80028fc:	9400      	str	r4, [sp, #0]
 80028fe:	4623      	mov	r3, r4
 8002900:	4642      	mov	r2, r8
 8002902:	4621      	mov	r1, r4
 8002904:	4638      	mov	r0, r7
 8002906:	f7ff ff4b 	bl	80027a0 <xTimerGenericCommand>
 800290a:	b970      	cbnz	r0, 800292a <prvTimerTask+0x8e>
 800290c:	f04f 0350 	mov.w	r3, #80	@ 0x50
 8002910:	f383 8811 	msr	BASEPRI, r3
 8002914:	f3bf 8f6f 	isb	sy
 8002918:	f3bf 8f4f 	dsb	sy
 800291c:	e7fe      	b.n	800291c <prvTimerTask+0x80>
 800291e:	2401      	movs	r4, #1
 8002920:	e7cb      	b.n	80028ba <prvTimerTask+0x1e>
 8002922:	f023 0301 	bic.w	r3, r3, #1
 8002926:	f887 3028 	strb.w	r3, [r7, #40]	@ 0x28
 800292a:	6a3b      	ldr	r3, [r7, #32]
 800292c:	4638      	mov	r0, r7
 800292e:	4798      	blx	r3
 8002930:	6830      	ldr	r0, [r6, #0]
 8002932:	2200      	movs	r2, #0
 8002934:	a904      	add	r1, sp, #16
 8002936:	f7ff f913 	bl	8001b60 <xQueueReceive>
 800293a:	2800      	cmp	r0, #0
 800293c:	d0b3      	beq.n	80028a6 <prvTimerTask+0xa>
 800293e:	9b04      	ldr	r3, [sp, #16]
 8002940:	9806      	ldr	r0, [sp, #24]
 8002942:	2b00      	cmp	r3, #0
 8002944:	db2f      	blt.n	80029a6 <prvTimerTask+0x10a>
 8002946:	9c06      	ldr	r4, [sp, #24]
 8002948:	6963      	ldr	r3, [r4, #20]
 800294a:	2b00      	cmp	r3, #0
 800294c:	d132      	bne.n	80029b4 <prvTimerTask+0x118>
 800294e:	a803      	add	r0, sp, #12
 8002950:	f7ff ff52 	bl	80027f8 <prvSampleTimeNow>
 8002954:	9b04      	ldr	r3, [sp, #16]
 8002956:	4602      	mov	r2, r0
 8002958:	2b09      	cmp	r3, #9
 800295a:	d8e9      	bhi.n	8002930 <prvTimerTask+0x94>
 800295c:	e8df f003 	tbb	[pc, r3]
 8002960:	572e2e2e 	.word	0x572e2e2e
 8002964:	2e2e765e 	.word	0x2e2e765e
 8002968:	5e57      	.short	0x5e57
 800296a:	4b3e      	ldr	r3, [pc, #248]	@ (8002a64 <prvTimerTask+0x1c8>)
 800296c:	681b      	ldr	r3, [r3, #0]
 800296e:	681c      	ldr	r4, [r3, #0]
 8002970:	fab4 f484 	clz	r4, r4
 8002974:	0964      	lsrs	r4, r4, #5
 8002976:	6830      	ldr	r0, [r6, #0]
 8002978:	4622      	mov	r2, r4
 800297a:	eba8 0109 	sub.w	r1, r8, r9
 800297e:	f7ff f9cc 	bl	8001d1a <vQueueWaitForMessageRestricted>
 8002982:	f7ff fc9f 	bl	80022c4 <xTaskResumeAll>
 8002986:	2800      	cmp	r0, #0
 8002988:	d1d2      	bne.n	8002930 <prvTimerTask+0x94>
 800298a:	f04f 23e0 	mov.w	r3, #3758153728	@ 0xe000e000
 800298e:	f04f 5280 	mov.w	r2, #268435456	@ 0x10000000
 8002992:	f8c3 2d04 	str.w	r2, [r3, #3332]	@ 0xd04
 8002996:	f3bf 8f4f 	dsb	sy
 800299a:	f3bf 8f6f 	isb	sy
 800299e:	e7c7      	b.n	8002930 <prvTimerTask+0x94>
 80029a0:	f7ff fc90 	bl	80022c4 <xTaskResumeAll>
 80029a4:	e7c4      	b.n	8002930 <prvTimerTask+0x94>
 80029a6:	9b05      	ldr	r3, [sp, #20]
 80029a8:	9907      	ldr	r1, [sp, #28]
 80029aa:	4798      	blx	r3
 80029ac:	9b04      	ldr	r3, [sp, #16]
 80029ae:	2b00      	cmp	r3, #0
 80029b0:	dbbe      	blt.n	8002930 <prvTimerTask+0x94>
 80029b2:	e7c8      	b.n	8002946 <prvTimerTask+0xaa>
 80029b4:	1d20      	adds	r0, r4, #4
 80029b6:	f7fe fde3 	bl	8001580 <uxListRemove>
 80029ba:	e7c8      	b.n	800294e <prvTimerTask+0xb2>
 80029bc:	f894 3028 	ldrb.w	r3, [r4, #40]	@ 0x28
 80029c0:	69a1      	ldr	r1, [r4, #24]
 80029c2:	f043 0301 	orr.w	r3, r3, #1
 80029c6:	f884 3028 	strb.w	r3, [r4, #40]	@ 0x28
 80029ca:	9b05      	ldr	r3, [sp, #20]
 80029cc:	4620      	mov	r0, r4
 80029ce:	4419      	add	r1, r3
 80029d0:	f7ff fe62 	bl	8002698 <prvInsertTimerInActiveList>
 80029d4:	2800      	cmp	r0, #0
 80029d6:	d0ab      	beq.n	8002930 <prvTimerTask+0x94>
 80029d8:	6a23      	ldr	r3, [r4, #32]
 80029da:	4620      	mov	r0, r4
 80029dc:	4798      	blx	r3
 80029de:	f894 3028 	ldrb.w	r3, [r4, #40]	@ 0x28
 80029e2:	0759      	lsls	r1, r3, #29
 80029e4:	d5a4      	bpl.n	8002930 <prvTimerTask+0x94>
 80029e6:	69a2      	ldr	r2, [r4, #24]
 80029e8:	9905      	ldr	r1, [sp, #20]
 80029ea:	2300      	movs	r3, #0
 80029ec:	440a      	add	r2, r1
 80029ee:	9300      	str	r3, [sp, #0]
 80029f0:	4619      	mov	r1, r3
 80029f2:	4620      	mov	r0, r4
 80029f4:	f7ff fed4 	bl	80027a0 <xTimerGenericCommand>
 80029f8:	2800      	cmp	r0, #0
 80029fa:	d199      	bne.n	8002930 <prvTimerTask+0x94>
 80029fc:	f04f 0350 	mov.w	r3, #80	@ 0x50
 8002a00:	f383 8811 	msr	BASEPRI, r3
 8002a04:	f3bf 8f6f 	isb	sy
 8002a08:	f3bf 8f4f 	dsb	sy
 8002a0c:	e7fe      	b.n	8002a0c <prvTimerTask+0x170>
 8002a0e:	f894 3028 	ldrb.w	r3, [r4, #40]	@ 0x28
 8002a12:	f023 0301 	bic.w	r3, r3, #1
 8002a16:	f884 3028 	strb.w	r3, [r4, #40]	@ 0x28
 8002a1a:	e789      	b.n	8002930 <prvTimerTask+0x94>
 8002a1c:	f894 3028 	ldrb.w	r3, [r4, #40]	@ 0x28
 8002a20:	f043 0301 	orr.w	r3, r3, #1
 8002a24:	f884 3028 	strb.w	r3, [r4, #40]	@ 0x28
 8002a28:	9905      	ldr	r1, [sp, #20]
 8002a2a:	61a1      	str	r1, [r4, #24]
 8002a2c:	b941      	cbnz	r1, 8002a40 <prvTimerTask+0x1a4>
 8002a2e:	f04f 0350 	mov.w	r3, #80	@ 0x50
 8002a32:	f383 8811 	msr	BASEPRI, r3
 8002a36:	f3bf 8f6f 	isb	sy
 8002a3a:	f3bf 8f4f 	dsb	sy
 8002a3e:	e7fe      	b.n	8002a3e <prvTimerTask+0x1a2>
 8002a40:	4603      	mov	r3, r0
 8002a42:	4401      	add	r1, r0
 8002a44:	4620      	mov	r0, r4
 8002a46:	f7ff fe27 	bl	8002698 <prvInsertTimerInActiveList>
 8002a4a:	e771      	b.n	8002930 <prvTimerTask+0x94>
 8002a4c:	f894 3028 	ldrb.w	r3, [r4, #40]	@ 0x28
 8002a50:	079a      	lsls	r2, r3, #30
 8002a52:	d4de      	bmi.n	8002a12 <prvTimerTask+0x176>
 8002a54:	4620      	mov	r0, r4
 8002a56:	f000 fa6b 	bl	8002f30 <vPortFree>
 8002a5a:	e769      	b.n	8002930 <prvTimerTask+0x94>
 8002a5c:	20000de0 	.word	0x20000de0
 8002a60:	20000dd8 	.word	0x20000dd8
 8002a64:	20000ddc 	.word	0x20000ddc

08002a68 <prvPortStartFirstTask>:
 8002a68:	4808      	ldr	r0, [pc, #32]	@ (8002a8c <prvPortStartFirstTask+0x24>)
 8002a6a:	6800      	ldr	r0, [r0, #0]
 8002a6c:	6800      	ldr	r0, [r0, #0]
 8002a6e:	f380 8808 	msr	MSP, r0
 8002a72:	f04f 0000 	mov.w	r0, #0
 8002a76:	f380 8814 	msr	CONTROL, r0
 8002a7a:	b662      	cpsie	i
 8002a7c:	b661      	cpsie	f
 8002a7e:	f3bf 8f4f 	dsb	sy
 8002a82:	f3bf 8f6f 	isb	sy
 8002a86:	df00      	svc	0
 8002a88:	bf00      	nop
 8002a8a:	0000      	.short	0x0000
 8002a8c:	e000ed08 	.word	0xe000ed08

08002a90 <vPortEnableVFP>:
 8002a90:	f8df 000c 	ldr.w	r0, [pc, #12]	@ 8002aa0 <vPortEnableVFP+0x10>
 8002a94:	6801      	ldr	r1, [r0, #0]
 8002a96:	f441 0170 	orr.w	r1, r1, #15728640	@ 0xf00000
 8002a9a:	6001      	str	r1, [r0, #0]
 8002a9c:	4770      	bx	lr
 8002a9e:	0000      	.short	0x0000
 8002aa0:	e000ed88 	.word	0xe000ed88

08002aa4 <prvTaskExitError>:
 8002aa4:	b082      	sub	sp, #8
 8002aa6:	2300      	movs	r3, #0
 8002aa8:	9301      	str	r3, [sp, #4]
 8002aaa:	4b0d      	ldr	r3, [pc, #52]	@ (8002ae0 <prvTaskExitError+0x3c>)
 8002aac:	681b      	ldr	r3, [r3, #0]
 8002aae:	3301      	adds	r3, #1
 8002ab0:	d008      	beq.n	8002ac4 <prvTaskExitError+0x20>
 8002ab2:	f04f 0350 	mov.w	r3, #80	@ 0x50
 8002ab6:	f383 8811 	msr	BASEPRI, r3
 8002aba:	f3bf 8f6f 	isb	sy
 8002abe:	f3bf 8f4f 	dsb	sy
 8002ac2:	e7fe      	b.n	8002ac2 <prvTaskExitError+0x1e>
 8002ac4:	f04f 0350 	mov.w	r3, #80	@ 0x50
 8002ac8:	f383 8811 	msr	BASEPRI, r3
 8002acc:	f3bf 8f6f 	isb	sy
 8002ad0:	f3bf 8f4f 	dsb	sy
 8002ad4:	9b01      	ldr	r3, [sp, #4]
 8002ad6:	2b00      	cmp	r3, #0
 8002ad8:	d0fc      	beq.n	8002ad4 <prvTaskExitError+0x30>
 8002ada:	b002      	add	sp, #8
 8002adc:	4770      	bx	lr
 8002ade:	bf00      	nop
 8002ae0:	2000000c 	.word	0x2000000c

08002ae4 <pxPortInitialiseStack>:
 8002ae4:	f04f 7380 	mov.w	r3, #16777216	@ 0x1000000
 8002ae8:	f840 3c04 	str.w	r3, [r0, #-4]
 8002aec:	4b07      	ldr	r3, [pc, #28]	@ (8002b0c <pxPortInitialiseStack+0x28>)
 8002aee:	f840 3c0c 	str.w	r3, [r0, #-12]
 8002af2:	f021 0101 	bic.w	r1, r1, #1
 8002af6:	f06f 0302 	mvn.w	r3, #2
 8002afa:	f840 1c08 	str.w	r1, [r0, #-8]
 8002afe:	f840 2c20 	str.w	r2, [r0, #-32]
 8002b02:	f840 3c24 	str.w	r3, [r0, #-36]
 8002b06:	3844      	subs	r0, #68	@ 0x44
 8002b08:	4770      	bx	lr
 8002b0a:	bf00      	nop
 8002b0c:	08002aa5 	.word	0x08002aa5

08002b10 <SVC_Handler>:
 8002b10:	4b07      	ldr	r3, [pc, #28]	@ (8002b30 <pxCurrentTCBConst2>)
 8002b12:	6819      	ldr	r1, [r3, #0]
 8002b14:	6808      	ldr	r0, [r1, #0]
 8002b16:	e8b0 4ff0 	ldmia.w	r0!, {r4, r5, r6, r7, r8, r9, sl, fp, lr}
 8002b1a:	f380 8809 	msr	PSP, r0
 8002b1e:	f3bf 8f6f 	isb	sy
 8002b22:	f04f 0000 	mov.w	r0, #0
 8002b26:	f380 8811 	msr	BASEPRI, r0
 8002b2a:	4770      	bx	lr
 8002b2c:	f3af 8000 	nop.w

08002b30 <pxCurrentTCBConst2>:
 8002b30:	20000cdc 	.word	0x20000cdc

08002b34 <vPortEnterCritical>:
 8002b34:	f04f 0350 	mov.w	r3, #80	@ 0x50
 8002b38:	f383 8811 	msr	BASEPRI, r3
 8002b3c:	f3bf 8f6f 	isb	sy
 8002b40:	f3bf 8f4f 	dsb	sy
 8002b44:	4a0a      	ldr	r2, [pc, #40]	@ (8002b70 <vPortEnterCritical+0x3c>)
 8002b46:	6813      	ldr	r3, [r2, #0]
 8002b48:	3301      	adds	r3, #1
 8002b4a:	2b01      	cmp	r3, #1
 8002b4c:	6013      	str	r3, [r2, #0]
 8002b4e:	d10e      	bne.n	8002b6e <vPortEnterCritical+0x3a>
 8002b50:	f04f 23e0 	mov.w	r3, #3758153728	@ 0xe000e000
 8002b54:	f8d3 3d04 	ldr.w	r3, [r3, #3332]	@ 0xd04
 8002b58:	b2db      	uxtb	r3, r3
 8002b5a:	b143      	cbz	r3, 8002b6e <vPortEnterCritical+0x3a>
 8002b5c:	f04f 0350 	mov.w	r3, #80	@ 0x50
 8002b60:	f383 8811 	msr	BASEPRI, r3
 8002b64:	f3bf 8f6f 	isb	sy
 8002b68:	f3bf 8f4f 	dsb	sy
 8002b6c:	e7fe      	b.n	8002b6c <vPortEnterCritical+0x38>
 8002b6e:	4770      	bx	lr
 8002b70:	2000000c 	.word	0x2000000c

08002b74 <vPortExitCritical>:
 8002b74:	4a08      	ldr	r2, [pc, #32]	@ (8002b98 <vPortExitCritical+0x24>)
 8002b76:	6813      	ldr	r3, [r2, #0]
 8002b78:	b943      	cbnz	r3, 8002b8c <vPortExitCritical+0x18>
 8002b7a:	f04f 0350 	mov.w	r3, #80	@ 0x50
 8002b7e:	f383 8811 	msr	BASEPRI, r3
 8002b82:	f3bf 8f6f 	isb	sy
 8002b86:	f3bf 8f4f 	dsb	sy
 8002b8a:	e7fe      	b.n	8002b8a <vPortExitCritical+0x16>
 8002b8c:	3b01      	subs	r3, #1
 8002b8e:	6013      	str	r3, [r2, #0]
 8002b90:	b90b      	cbnz	r3, 8002b96 <vPortExitCritical+0x22>
 8002b92:	f383 8811 	msr	BASEPRI, r3
 8002b96:	4770      	bx	lr
 8002b98:	2000000c 	.word	0x2000000c
 8002b9c:	00000000 	.word	0x00000000

08002ba0 <PendSV_Handler>:
 8002ba0:	f3ef 8009 	mrs	r0, PSP
 8002ba4:	f3bf 8f6f 	isb	sy
 8002ba8:	4b15      	ldr	r3, [pc, #84]	@ (8002c00 <pxCurrentTCBConst>)
 8002baa:	681a      	ldr	r2, [r3, #0]
 8002bac:	f01e 0f10 	tst.w	lr, #16
 8002bb0:	bf08      	it	eq
 8002bb2:	ed20 8a10 	vstmdbeq	r0!, {s16-s31}
 8002bb6:	e920 4ff0 	stmdb	r0!, {r4, r5, r6, r7, r8, r9, sl, fp, lr}
 8002bba:	6010      	str	r0, [r2, #0]
 8002bbc:	e92d 0009 	stmdb	sp!, {r0, r3}
 8002bc0:	f04f 0050 	mov.w	r0, #80	@ 0x50
 8002bc4:	f380 8811 	msr	BASEPRI, r0
 8002bc8:	f3bf 8f4f 	dsb	sy
 8002bcc:	f3bf 8f6f 	isb	sy
 8002bd0:	f7ff fc10 	bl	80023f4 <vTaskSwitchContext>
 8002bd4:	f04f 0000 	mov.w	r0, #0
 8002bd8:	f380 8811 	msr	BASEPRI, r0
 8002bdc:	bc09      	pop	{r0, r3}
 8002bde:	6819      	ldr	r1, [r3, #0]
 8002be0:	6808      	ldr	r0, [r1, #0]
 8002be2:	e8b0 4ff0 	ldmia.w	r0!, {r4, r5, r6, r7, r8, r9, sl, fp, lr}
 8002be6:	f01e 0f10 	tst.w	lr, #16
 8002bea:	bf08      	it	eq
 8002bec:	ecb0 8a10 	vldmiaeq	r0!, {s16-s31}
 8002bf0:	f380 8809 	msr	PSP, r0
 8002bf4:	f3bf 8f6f 	isb	sy
 8002bf8:	4770      	bx	lr
 8002bfa:	bf00      	nop
 8002bfc:	f3af 8000 	nop.w

08002c00 <pxCurrentTCBConst>:
 8002c00:	20000cdc 	.word	0x20000cdc

08002c04 <xPortSysTickHandler>:
 8002c04:	b508      	push	{r3, lr}
 8002c06:	f04f 0350 	mov.w	r3, #80	@ 0x50
 8002c0a:	f383 8811 	msr	BASEPRI, r3
 8002c0e:	f3bf 8f6f 	isb	sy
 8002c12:	f3bf 8f4f 	dsb	sy
 8002c16:	f7ff fabf 	bl	8002198 <xTaskIncrementTick>
 8002c1a:	b128      	cbz	r0, 8002c28 <xPortSysTickHandler+0x24>
 8002c1c:	f04f 23e0 	mov.w	r3, #3758153728	@ 0xe000e000
 8002c20:	f04f 5280 	mov.w	r2, #268435456	@ 0x10000000
 8002c24:	f8c3 2d04 	str.w	r2, [r3, #3332]	@ 0xd04
 8002c28:	2300      	movs	r3, #0
 8002c2a:	f383 8811 	msr	BASEPRI, r3
 8002c2e:	bd08      	pop	{r3, pc}

08002c30 <vPortSetupTimerInterrupt>:
 8002c30:	f04f 22e0 	mov.w	r2, #3758153728	@ 0xe000e000
 8002c34:	2300      	movs	r3, #0
 8002c36:	6113      	str	r3, [r2, #16]
 8002c38:	6193      	str	r3, [r2, #24]
 8002c3a:	4b05      	ldr	r3, [pc, #20]	@ (8002c50 <vPortSetupTimerInterrupt+0x20>)
 8002c3c:	f44f 717a 	mov.w	r1, #1000	@ 0x3e8
 8002c40:	681b      	ldr	r3, [r3, #0]
 8002c42:	fbb3 f3f1 	udiv	r3, r3, r1
 8002c46:	3b01      	subs	r3, #1
 8002c48:	6153      	str	r3, [r2, #20]
 8002c4a:	2307      	movs	r3, #7
 8002c4c:	6113      	str	r3, [r2, #16]
 8002c4e:	4770      	bx	lr
 8002c50:	20000000 	.word	0x20000000

08002c54 <xPortStartScheduler>:
 8002c54:	f04f 23e0 	mov.w	r3, #3758153728	@ 0xe000e000
 8002c58:	b537      	push	{r0, r1, r2, r4, r5, lr}
 8002c5a:	f8d3 1d00 	ldr.w	r1, [r3, #3328]	@ 0xd00
 8002c5e:	4a38      	ldr	r2, [pc, #224]	@ (8002d40 <xPortStartScheduler+0xec>)
 8002c60:	4291      	cmp	r1, r2
 8002c62:	d108      	bne.n	8002c76 <xPortStartScheduler+0x22>
 8002c64:	f04f 0350 	mov.w	r3, #80	@ 0x50
 8002c68:	f383 8811 	msr	BASEPRI, r3
 8002c6c:	f3bf 8f6f 	isb	sy
 8002c70:	f3bf 8f4f 	dsb	sy
 8002c74:	e7fe      	b.n	8002c74 <xPortStartScheduler+0x20>
 8002c76:	f8d3 2d00 	ldr.w	r2, [r3, #3328]	@ 0xd00
 8002c7a:	4b32      	ldr	r3, [pc, #200]	@ (8002d44 <xPortStartScheduler+0xf0>)
 8002c7c:	429a      	cmp	r2, r3
 8002c7e:	d108      	bne.n	8002c92 <xPortStartScheduler+0x3e>
 8002c80:	f04f 0350 	mov.w	r3, #80	@ 0x50
 8002c84:	f383 8811 	msr	BASEPRI, r3
 8002c88:	f3bf 8f6f 	isb	sy
 8002c8c:	f3bf 8f4f 	dsb	sy
 8002c90:	e7fe      	b.n	8002c90 <xPortStartScheduler+0x3c>
 8002c92:	4b2d      	ldr	r3, [pc, #180]	@ (8002d48 <xPortStartScheduler+0xf4>)
 8002c94:	781a      	ldrb	r2, [r3, #0]
 8002c96:	b2d2      	uxtb	r2, r2
 8002c98:	9201      	str	r2, [sp, #4]
 8002c9a:	22ff      	movs	r2, #255	@ 0xff
 8002c9c:	701a      	strb	r2, [r3, #0]
 8002c9e:	781b      	ldrb	r3, [r3, #0]
 8002ca0:	4a2a      	ldr	r2, [pc, #168]	@ (8002d4c <xPortStartScheduler+0xf8>)
 8002ca2:	b2db      	uxtb	r3, r3
 8002ca4:	f88d 3003 	strb.w	r3, [sp, #3]
 8002ca8:	f89d 3003 	ldrb.w	r3, [sp, #3]
 8002cac:	f003 0350 	and.w	r3, r3, #80	@ 0x50
 8002cb0:	7013      	strb	r3, [r2, #0]
 8002cb2:	4a27      	ldr	r2, [pc, #156]	@ (8002d50 <xPortStartScheduler+0xfc>)
 8002cb4:	2307      	movs	r3, #7
 8002cb6:	6013      	str	r3, [r2, #0]
 8002cb8:	f89d 1003 	ldrb.w	r1, [sp, #3]
 8002cbc:	6813      	ldr	r3, [r2, #0]
 8002cbe:	0609      	lsls	r1, r1, #24
 8002cc0:	d40a      	bmi.n	8002cd8 <xPortStartScheduler+0x84>
 8002cc2:	2b03      	cmp	r3, #3
 8002cc4:	d011      	beq.n	8002cea <xPortStartScheduler+0x96>
 8002cc6:	f04f 0350 	mov.w	r3, #80	@ 0x50
 8002cca:	f383 8811 	msr	BASEPRI, r3
 8002cce:	f3bf 8f6f 	isb	sy
 8002cd2:	f3bf 8f4f 	dsb	sy
 8002cd6:	e7fe      	b.n	8002cd6 <xPortStartScheduler+0x82>
 8002cd8:	3b01      	subs	r3, #1
 8002cda:	6013      	str	r3, [r2, #0]
 8002cdc:	f89d 3003 	ldrb.w	r3, [sp, #3]
 8002ce0:	005b      	lsls	r3, r3, #1
 8002ce2:	b2db      	uxtb	r3, r3
 8002ce4:	f88d 3003 	strb.w	r3, [sp, #3]
 8002ce8:	e7e6      	b.n	8002cb8 <xPortStartScheduler+0x64>
 8002cea:	f44f 7340 	mov.w	r3, #768	@ 0x300
 8002cee:	6013      	str	r3, [r2, #0]
 8002cf0:	9b01      	ldr	r3, [sp, #4]
 8002cf2:	4a15      	ldr	r2, [pc, #84]	@ (8002d48 <xPortStartScheduler+0xf4>)
 8002cf4:	f04f 24e0 	mov.w	r4, #3758153728	@ 0xe000e000
 8002cf8:	b2db      	uxtb	r3, r3
 8002cfa:	7013      	strb	r3, [r2, #0]
 8002cfc:	f8d4 3d20 	ldr.w	r3, [r4, #3360]	@ 0xd20
 8002d00:	f443 0370 	orr.w	r3, r3, #15728640	@ 0xf00000
 8002d04:	f8c4 3d20 	str.w	r3, [r4, #3360]	@ 0xd20
 8002d08:	f8d4 3d20 	ldr.w	r3, [r4, #3360]	@ 0xd20
 8002d0c:	f043 4370 	orr.w	r3, r3, #4026531840	@ 0xf0000000
 8002d10:	f8c4 3d20 	str.w	r3, [r4, #3360]	@ 0xd20
 8002d14:	f7ff ff8c 	bl	8002c30 <vPortSetupTimerInterrupt>
 8002d18:	4b0e      	ldr	r3, [pc, #56]	@ (8002d54 <xPortStartScheduler+0x100>)
 8002d1a:	2500      	movs	r5, #0
 8002d1c:	601d      	str	r5, [r3, #0]
 8002d1e:	f7ff feb7 	bl	8002a90 <vPortEnableVFP>
 8002d22:	f8d4 3f34 	ldr.w	r3, [r4, #3892]	@ 0xf34
 8002d26:	f043 4340 	orr.w	r3, r3, #3221225472	@ 0xc0000000
 8002d2a:	f8c4 3f34 	str.w	r3, [r4, #3892]	@ 0xf34
 8002d2e:	f7ff fe9b 	bl	8002a68 <prvPortStartFirstTask>
 8002d32:	f7ff fb5f 	bl	80023f4 <vTaskSwitchContext>
 8002d36:	f7ff feb5 	bl	8002aa4 <prvTaskExitError>
 8002d3a:	4628      	mov	r0, r5
 8002d3c:	b003      	add	sp, #12
 8002d3e:	bd30      	pop	{r4, r5, pc}
 8002d40:	410fc271 	.word	0x410fc271
 8002d44:	410fc270 	.word	0x410fc270
 8002d48:	e000e400 	.word	0xe000e400
 8002d4c:	20000e10 	.word	0x20000e10
 8002d50:	20000e0c 	.word	0x20000e0c
 8002d54:	2000000c 	.word	0x2000000c

08002d58 <vPortValidateInterruptPriority>:
 8002d58:	f3ef 8305 	mrs	r3, IPSR
 8002d5c:	2b0f      	cmp	r3, #15
 8002d5e:	d90e      	bls.n	8002d7e <vPortValidateInterruptPriority+0x26>
 8002d60:	4a11      	ldr	r2, [pc, #68]	@ (8002da8 <vPortValidateInterruptPriority+0x50>)
 8002d62:	5c9b      	ldrb	r3, [r3, r2]
 8002d64:	4a11      	ldr	r2, [pc, #68]	@ (8002dac <vPortValidateInterruptPriority+0x54>)
 8002d66:	7812      	ldrb	r2, [r2, #0]
 8002d68:	429a      	cmp	r2, r3
 8002d6a:	d908      	bls.n	8002d7e <vPortValidateInterruptPriority+0x26>
 8002d6c:	f04f 0350 	mov.w	r3, #80	@ 0x50
 8002d70:	f383 8811 	msr	BASEPRI, r3
 8002d74:	f3bf 8f6f 	isb	sy
 8002d78:	f3bf 8f4f 	dsb	sy
 8002d7c:	e7fe      	b.n	8002d7c <vPortValidateInterruptPriority+0x24>
 8002d7e:	f04f 23e0 	mov.w	r3, #3758153728	@ 0xe000e000
 8002d82:	4a0b      	ldr	r2, [pc, #44]	@ (8002db0 <vPortValidateInterruptPriority+0x58>)
 8002d84:	f8d3 3d0c 	ldr.w	r3, [r3, #3340]	@ 0xd0c
 8002d88:	6812      	ldr	r2, [r2, #0]
 8002d8a:	f403 63e0 	and.w	r3, r3, #1792	@ 0x700
 8002d8e:	4293      	cmp	r3, r2
 8002d90:	d908      	bls.n	8002da4 <vPortValidateInterruptPriority+0x4c>
 8002d92:	f04f 0350 	mov.w	r3, #80	@ 0x50
 8002d96:	f383 8811 	msr	BASEPRI, r3
 8002d9a:	f3bf 8f6f 	isb	sy
 8002d9e:	f3bf 8f4f 	dsb	sy
 8002da2:	e7fe      	b.n	8002da2 <vPortValidateInterruptPriority+0x4a>
 8002da4:	4770      	bx	lr
 8002da6:	bf00      	nop
 8002da8:	e000e3f0 	.word	0xe000e3f0
 8002dac:	20000e10 	.word	0x20000e10
 8002db0:	20000e0c 	.word	0x20000e0c

08002db4 <prvInsertBlockIntoFreeList>:
 8002db4:	b510      	push	{r4, lr}
 8002db6:	4b10      	ldr	r3, [pc, #64]	@ (8002df8 <prvInsertBlockIntoFreeList+0x44>)
 8002db8:	461a      	mov	r2, r3
 8002dba:	681b      	ldr	r3, [r3, #0]
 8002dbc:	4283      	cmp	r3, r0
 8002dbe:	d3fb      	bcc.n	8002db8 <prvInsertBlockIntoFreeList+0x4>
 8002dc0:	6854      	ldr	r4, [r2, #4]
 8002dc2:	1911      	adds	r1, r2, r4
 8002dc4:	4288      	cmp	r0, r1
 8002dc6:	bf01      	itttt	eq
 8002dc8:	6841      	ldreq	r1, [r0, #4]
 8002dca:	4610      	moveq	r0, r2
 8002dcc:	1909      	addeq	r1, r1, r4
 8002dce:	6051      	streq	r1, [r2, #4]
 8002dd0:	6844      	ldr	r4, [r0, #4]
 8002dd2:	1901      	adds	r1, r0, r4
 8002dd4:	428b      	cmp	r3, r1
 8002dd6:	d10c      	bne.n	8002df2 <prvInsertBlockIntoFreeList+0x3e>
 8002dd8:	4908      	ldr	r1, [pc, #32]	@ (8002dfc <prvInsertBlockIntoFreeList+0x48>)
 8002dda:	6809      	ldr	r1, [r1, #0]
 8002ddc:	428b      	cmp	r3, r1
 8002dde:	d003      	beq.n	8002de8 <prvInsertBlockIntoFreeList+0x34>
 8002de0:	6859      	ldr	r1, [r3, #4]
 8002de2:	4421      	add	r1, r4
 8002de4:	6041      	str	r1, [r0, #4]
 8002de6:	6819      	ldr	r1, [r3, #0]
 8002de8:	6001      	str	r1, [r0, #0]
 8002dea:	4290      	cmp	r0, r2
 8002dec:	bf18      	it	ne
 8002dee:	6010      	strne	r0, [r2, #0]
 8002df0:	bd10      	pop	{r4, pc}
 8002df2:	4619      	mov	r1, r3
 8002df4:	e7f8      	b.n	8002de8 <prvInsertBlockIntoFreeList+0x34>
 8002df6:	bf00      	nop
 8002df8:	20000e2c 	.word	0x20000e2c
 8002dfc:	20000e28 	.word	0x20000e28

08002e00 <pvPortMalloc>:
 8002e00:	e92d 41f0 	stmdb	sp!, {r4, r5, r6, r7, r8, lr}
 8002e04:	4604      	mov	r4, r0
 8002e06:	f7ff f9b9 	bl	800217c <vTaskSuspendAll>
 8002e0a:	4942      	ldr	r1, [pc, #264]	@ (8002f14 <pvPortMalloc+0x114>)
 8002e0c:	4d42      	ldr	r5, [pc, #264]	@ (8002f18 <pvPortMalloc+0x118>)
 8002e0e:	680b      	ldr	r3, [r1, #0]
 8002e10:	bb0b      	cbnz	r3, 8002e56 <pvPortMalloc+0x56>
 8002e12:	4a42      	ldr	r2, [pc, #264]	@ (8002f1c <pvPortMalloc+0x11c>)
 8002e14:	0756      	lsls	r6, r2, #29
 8002e16:	bf1f      	itttt	ne
 8002e18:	1dd0      	addne	r0, r2, #7
 8002e1a:	f020 0007 	bicne.w	r0, r0, #7
 8002e1e:	f502 5270 	addne.w	r2, r2, #15360	@ 0x3c00
 8002e22:	1a13      	subne	r3, r2, r0
 8002e24:	bf0c      	ite	eq
 8002e26:	f44f 5370 	moveq.w	r3, #15360	@ 0x3c00
 8002e2a:	4602      	movne	r2, r0
 8002e2c:	4413      	add	r3, r2
 8002e2e:	4e3c      	ldr	r6, [pc, #240]	@ (8002f20 <pvPortMalloc+0x120>)
 8002e30:	3b08      	subs	r3, #8
 8002e32:	f023 0307 	bic.w	r3, r3, #7
 8002e36:	2000      	movs	r0, #0
 8002e38:	6070      	str	r0, [r6, #4]
 8002e3a:	6032      	str	r2, [r6, #0]
 8002e3c:	e9c3 0000 	strd	r0, r0, [r3]
 8002e40:	1a98      	subs	r0, r3, r2
 8002e42:	e9c2 3000 	strd	r3, r0, [r2]
 8002e46:	600b      	str	r3, [r1, #0]
 8002e48:	4b36      	ldr	r3, [pc, #216]	@ (8002f24 <pvPortMalloc+0x124>)
 8002e4a:	6018      	str	r0, [r3, #0]
 8002e4c:	4b36      	ldr	r3, [pc, #216]	@ (8002f28 <pvPortMalloc+0x128>)
 8002e4e:	6018      	str	r0, [r3, #0]
 8002e50:	f04f 4300 	mov.w	r3, #2147483648	@ 0x80000000
 8002e54:	602b      	str	r3, [r5, #0]
 8002e56:	682e      	ldr	r6, [r5, #0]
 8002e58:	4226      	tst	r6, r4
 8002e5a:	d155      	bne.n	8002f08 <pvPortMalloc+0x108>
 8002e5c:	2c00      	cmp	r4, #0
 8002e5e:	d046      	beq.n	8002eee <pvPortMalloc+0xee>
 8002e60:	f104 0308 	add.w	r3, r4, #8
 8002e64:	0760      	lsls	r0, r4, #29
 8002e66:	bf1c      	itt	ne
 8002e68:	f023 0307 	bicne.w	r3, r3, #7
 8002e6c:	3308      	addne	r3, #8
 8002e6e:	2b00      	cmp	r3, #0
 8002e70:	d04a      	beq.n	8002f08 <pvPortMalloc+0x108>
 8002e72:	4f2d      	ldr	r7, [pc, #180]	@ (8002f28 <pvPortMalloc+0x128>)
 8002e74:	683c      	ldr	r4, [r7, #0]
 8002e76:	429c      	cmp	r4, r3
 8002e78:	d346      	bcc.n	8002f08 <pvPortMalloc+0x108>
 8002e7a:	4a29      	ldr	r2, [pc, #164]	@ (8002f20 <pvPortMalloc+0x120>)
 8002e7c:	6815      	ldr	r5, [r2, #0]
 8002e7e:	6868      	ldr	r0, [r5, #4]
 8002e80:	4298      	cmp	r0, r3
 8002e82:	d204      	bcs.n	8002e8e <pvPortMalloc+0x8e>
 8002e84:	f8d5 c000 	ldr.w	ip, [r5]
 8002e88:	f1bc 0f00 	cmp.w	ip, #0
 8002e8c:	d115      	bne.n	8002eba <pvPortMalloc+0xba>
 8002e8e:	6809      	ldr	r1, [r1, #0]
 8002e90:	42a9      	cmp	r1, r5
 8002e92:	d039      	beq.n	8002f08 <pvPortMalloc+0x108>
 8002e94:	6829      	ldr	r1, [r5, #0]
 8002e96:	f8d2 8000 	ldr.w	r8, [r2]
 8002e9a:	6011      	str	r1, [r2, #0]
 8002e9c:	1ac2      	subs	r2, r0, r3
 8002e9e:	2a10      	cmp	r2, #16
 8002ea0:	d912      	bls.n	8002ec8 <pvPortMalloc+0xc8>
 8002ea2:	18e8      	adds	r0, r5, r3
 8002ea4:	0741      	lsls	r1, r0, #29
 8002ea6:	d00b      	beq.n	8002ec0 <pvPortMalloc+0xc0>
 8002ea8:	f04f 0350 	mov.w	r3, #80	@ 0x50
 8002eac:	f383 8811 	msr	BASEPRI, r3
 8002eb0:	f3bf 8f6f 	isb	sy
 8002eb4:	f3bf 8f4f 	dsb	sy
 8002eb8:	e7fe      	b.n	8002eb8 <pvPortMalloc+0xb8>
 8002eba:	462a      	mov	r2, r5
 8002ebc:	4665      	mov	r5, ip
 8002ebe:	e7de      	b.n	8002e7e <pvPortMalloc+0x7e>
 8002ec0:	6042      	str	r2, [r0, #4]
 8002ec2:	606b      	str	r3, [r5, #4]
 8002ec4:	f7ff ff76 	bl	8002db4 <prvInsertBlockIntoFreeList>
 8002ec8:	686a      	ldr	r2, [r5, #4]
 8002eca:	4916      	ldr	r1, [pc, #88]	@ (8002f24 <pvPortMalloc+0x124>)
 8002ecc:	1aa4      	subs	r4, r4, r2
 8002ece:	4316      	orrs	r6, r2
 8002ed0:	4a16      	ldr	r2, [pc, #88]	@ (8002f2c <pvPortMalloc+0x12c>)
 8002ed2:	6808      	ldr	r0, [r1, #0]
 8002ed4:	603c      	str	r4, [r7, #0]
 8002ed6:	2300      	movs	r3, #0
 8002ed8:	602b      	str	r3, [r5, #0]
 8002eda:	6813      	ldr	r3, [r2, #0]
 8002edc:	606e      	str	r6, [r5, #4]
 8002ede:	4284      	cmp	r4, r0
 8002ee0:	f103 0301 	add.w	r3, r3, #1
 8002ee4:	bf38      	it	cc
 8002ee6:	600c      	strcc	r4, [r1, #0]
 8002ee8:	6013      	str	r3, [r2, #0]
 8002eea:	f108 0408 	add.w	r4, r8, #8
 8002eee:	f7ff f9e9 	bl	80022c4 <xTaskResumeAll>
 8002ef2:	0763      	lsls	r3, r4, #29
 8002ef4:	d00a      	beq.n	8002f0c <pvPortMalloc+0x10c>
 8002ef6:	f04f 0350 	mov.w	r3, #80	@ 0x50
 8002efa:	f383 8811 	msr	BASEPRI, r3
 8002efe:	f3bf 8f6f 	isb	sy
 8002f02:	f3bf 8f4f 	dsb	sy
 8002f06:	e7fe      	b.n	8002f06 <pvPortMalloc+0x106>
 8002f08:	2400      	movs	r4, #0
 8002f0a:	e7f0      	b.n	8002eee <pvPortMalloc+0xee>
 8002f0c:	4620      	mov	r0, r4
 8002f0e:	e8bd 81f0 	ldmia.w	sp!, {r4, r5, r6, r7, r8, pc}
 8002f12:	bf00      	nop
 8002f14:	20000e28 	.word	0x20000e28
 8002f18:	20000e14 	.word	0x20000e14
 8002f1c:	20000e34 	.word	0x20000e34
 8002f20:	20000e2c 	.word	0x20000e2c
 8002f24:	20000e20 	.word	0x20000e20
 8002f28:	20000e24 	.word	0x20000e24
 8002f2c:	20000e1c 	.word	0x20000e1c

08002f30 <vPortFree>:
 8002f30:	b510      	push	{r4, lr}
 8002f32:	4604      	mov	r4, r0
 8002f34:	b390      	cbz	r0, 8002f9c <vPortFree+0x6c>
 8002f36:	4a1a      	ldr	r2, [pc, #104]	@ (8002fa0 <vPortFree+0x70>)
 8002f38:	f850 3c04 	ldr.w	r3, [r0, #-4]
 8002f3c:	6812      	ldr	r2, [r2, #0]
 8002f3e:	4213      	tst	r3, r2
 8002f40:	d108      	bne.n	8002f54 <vPortFree+0x24>
 8002f42:	f04f 0350 	mov.w	r3, #80	@ 0x50
 8002f46:	f383 8811 	msr	BASEPRI, r3
 8002f4a:	f3bf 8f6f 	isb	sy
 8002f4e:	f3bf 8f4f 	dsb	sy
 8002f52:	e7fe      	b.n	8002f52 <vPortFree+0x22>
 8002f54:	f850 1c08 	ldr.w	r1, [r0, #-8]
 8002f58:	b141      	cbz	r1, 8002f6c <vPortFree+0x3c>
 8002f5a:	f04f 0350 	mov.w	r3, #80	@ 0x50
 8002f5e:	f383 8811 	msr	BASEPRI, r3
 8002f62:	f3bf 8f6f 	isb	sy
 8002f66:	f3bf 8f4f 	dsb	sy
 8002f6a:	e7fe      	b.n	8002f6a <vPortFree+0x3a>
 8002f6c:	ea23 0302 	bic.w	r3, r3, r2
 8002f70:	f840 3c04 	str.w	r3, [r0, #-4]
 8002f74:	f7ff f902 	bl	800217c <vTaskSuspendAll>
 8002f78:	4a0a      	ldr	r2, [pc, #40]	@ (8002fa4 <vPortFree+0x74>)
 8002f7a:	f854 3c04 	ldr.w	r3, [r4, #-4]
 8002f7e:	6811      	ldr	r1, [r2, #0]
 8002f80:	f1a4 0008 	sub.w	r0, r4, #8
 8002f84:	440b      	add	r3, r1
 8002f86:	6013      	str	r3, [r2, #0]
 8002f88:	f7ff ff14 	bl	8002db4 <prvInsertBlockIntoFreeList>
 8002f8c:	4a06      	ldr	r2, [pc, #24]	@ (8002fa8 <vPortFree+0x78>)
 8002f8e:	6813      	ldr	r3, [r2, #0]
 8002f90:	e8bd 4010 	ldmia.w	sp!, {r4, lr}
 8002f94:	3301      	adds	r3, #1
 8002f96:	6013      	str	r3, [r2, #0]
 8002f98:	f7ff b994 	b.w	80022c4 <xTaskResumeAll>
 8002f9c:	bd10      	pop	{r4, pc}
 8002f9e:	bf00      	nop
 8002fa0:	20000e14 	.word	0x20000e14
 8002fa4:	20000e24 	.word	0x20000e24
 8002fa8:	20000e18 	.word	0x20000e18

08002fac <std>:
 8002fac:	2300      	movs	r3, #0
 8002fae:	b510      	push	{r4, lr}
 8002fb0:	4604      	mov	r4, r0
 8002fb2:	e9c0 3300 	strd	r3, r3, [r0]
 8002fb6:	e9c0 3304 	strd	r3, r3, [r0, #16]
 8002fba:	6083      	str	r3, [r0, #8]
 8002fbc:	8181      	strh	r1, [r0, #12]
 8002fbe:	6643      	str	r3, [r0, #100]	@ 0x64
 8002fc0:	81c2      	strh	r2, [r0, #14]
 8002fc2:	6183      	str	r3, [r0, #24]
 8002fc4:	4619      	mov	r1, r3
 8002fc6:	2208      	movs	r2, #8
 8002fc8:	305c      	adds	r0, #92	@ 0x5c
 8002fca:	f000 f9e7 	bl	800339c <memset>
 8002fce:	4b0d      	ldr	r3, [pc, #52]	@ (8003004 <std+0x58>)
 8002fd0:	6263      	str	r3, [r4, #36]	@ 0x24
 8002fd2:	4b0d      	ldr	r3, [pc, #52]	@ (8003008 <std+0x5c>)
 8002fd4:	62a3      	str	r3, [r4, #40]	@ 0x28
 8002fd6:	4b0d      	ldr	r3, [pc, #52]	@ (800300c <std+0x60>)
 8002fd8:	62e3      	str	r3, [r4, #44]	@ 0x2c
 8002fda:	4b0d      	ldr	r3, [pc, #52]	@ (8003010 <std+0x64>)
 8002fdc:	6323      	str	r3, [r4, #48]	@ 0x30
 8002fde:	4b0d      	ldr	r3, [pc, #52]	@ (8003014 <std+0x68>)
 8002fe0:	6224      	str	r4, [r4, #32]
 8002fe2:	429c      	cmp	r4, r3
 8002fe4:	d006      	beq.n	8002ff4 <std+0x48>
 8002fe6:	f103 0268 	add.w	r2, r3, #104	@ 0x68
 8002fea:	4294      	cmp	r4, r2
 8002fec:	d002      	beq.n	8002ff4 <std+0x48>
 8002fee:	33d0      	adds	r3, #208	@ 0xd0
 8002ff0:	429c      	cmp	r4, r3
 8002ff2:	d105      	bne.n	8003000 <std+0x54>
 8002ff4:	f104 0058 	add.w	r0, r4, #88	@ 0x58
 8002ff8:	e8bd 4010 	ldmia.w	sp!, {r4, lr}
 8002ffc:	f000 ba46 	b.w	800348c <__retarget_lock_init_recursive>
 8003000:	bd10      	pop	{r4, pc}
 8003002:	bf00      	nop
 8003004:	080031ed 	.word	0x080031ed
 8003008:	0800320f 	.word	0x0800320f
 800300c:	08003247 	.word	0x08003247
 8003010:	0800326b 	.word	0x0800326b
 8003014:	20004a34 	.word	0x20004a34

08003018 <stdio_exit_handler>:
 8003018:	4a02      	ldr	r2, [pc, #8]	@ (8003024 <stdio_exit_handler+0xc>)
 800301a:	4903      	ldr	r1, [pc, #12]	@ (8003028 <stdio_exit_handler+0x10>)
 800301c:	4803      	ldr	r0, [pc, #12]	@ (800302c <stdio_exit_handler+0x14>)
 800301e:	f000 b869 	b.w	80030f4 <_fwalk_sglue>
 8003022:	bf00      	nop
 8003024:	20000010 	.word	0x20000010
 8003028:	080037a9 	.word	0x080037a9
 800302c:	20000020 	.word	0x20000020

08003030 <cleanup_stdio>:
 8003030:	6841      	ldr	r1, [r0, #4]
 8003032:	4b0c      	ldr	r3, [pc, #48]	@ (8003064 <cleanup_stdio+0x34>)
 8003034:	4299      	cmp	r1, r3
 8003036:	b510      	push	{r4, lr}
 8003038:	4604      	mov	r4, r0
 800303a:	d001      	beq.n	8003040 <cleanup_stdio+0x10>
 800303c:	f000 fbb4 	bl	80037a8 <_fflush_r>
 8003040:	68a1      	ldr	r1, [r4, #8]
 8003042:	4b09      	ldr	r3, [pc, #36]	@ (8003068 <cleanup_stdio+0x38>)
 8003044:	4299      	cmp	r1, r3
 8003046:	d002      	beq.n	800304e <cleanup_stdio+0x1e>
 8003048:	4620      	mov	r0, r4
 800304a:	f000 fbad 	bl	80037a8 <_fflush_r>
 800304e:	68e1      	ldr	r1, [r4, #12]
 8003050:	4b06      	ldr	r3, [pc, #24]	@ (800306c <cleanup_stdio+0x3c>)
 8003052:	4299      	cmp	r1, r3
 8003054:	d004      	beq.n	8003060 <cleanup_stdio+0x30>
 8003056:	4620      	mov	r0, r4
 8003058:	e8bd 4010 	ldmia.w	sp!, {r4, lr}
 800305c:	f000 bba4 	b.w	80037a8 <_fflush_r>
 8003060:	bd10      	pop	{r4, pc}
 8003062:	bf00      	nop
 8003064:	20004a34 	.word	0x20004a34
 8003068:	20004a9c 	.word	0x20004a9c
 800306c:	20004b04 	.word	0x20004b04

08003070 <global_stdio_init.part.0>:
 8003070:	b510      	push	{r4, lr}
 8003072:	4b0b      	ldr	r3, [pc, #44]	@ (80030a0 <global_stdio_init.part.0+0x30>)
 8003074:	4c0b      	ldr	r4, [pc, #44]	@ (80030a4 <global_stdio_init.part.0+0x34>)
 8003076:	4a0c      	ldr	r2, [pc, #48]	@ (80030a8 <global_stdio_init.part.0+0x38>)
 8003078:	601a      	str	r2, [r3, #0]
 800307a:	4620      	mov	r0, r4
 800307c:	2200      	movs	r2, #0
 800307e:	2104      	movs	r1, #4
 8003080:	f7ff ff94 	bl	8002fac <std>
 8003084:	f104 0068 	add.w	r0, r4, #104	@ 0x68
 8003088:	2201      	movs	r2, #1
 800308a:	2109      	movs	r1, #9
 800308c:	f7ff ff8e 	bl	8002fac <std>
 8003090:	f104 00d0 	add.w	r0, r4, #208	@ 0xd0
 8003094:	2202      	movs	r2, #2
 8003096:	e8bd 4010 	ldmia.w	sp!, {r4, lr}
 800309a:	2112      	movs	r1, #18
 800309c:	f7ff bf86 	b.w	8002fac <std>
 80030a0:	20004b6c 	.word	0x20004b6c
 80030a4:	20004a34 	.word	0x20004a34
 80030a8:	08003019 	.word	0x08003019

080030ac <__sfp_lock_acquire>:
 80030ac:	4801      	ldr	r0, [pc, #4]	@ (80030b4 <__sfp_lock_acquire+0x8>)
 80030ae:	f000 b9ee 	b.w	800348e <__retarget_lock_acquire_recursive>
 80030b2:	bf00      	nop
 80030b4:	20004b75 	.word	0x20004b75

080030b8 <__sfp_lock_release>:
 80030b8:	4801      	ldr	r0, [pc, #4]	@ (80030c0 <__sfp_lock_release+0x8>)
 80030ba:	f000 b9e9 	b.w	8003490 <__retarget_lock_release_recursive>
 80030be:	bf00      	nop
 80030c0:	20004b75 	.word	0x20004b75

080030c4 <__sinit>:
 80030c4:	b510      	push	{r4, lr}
 80030c6:	4604      	mov	r4, r0
 80030c8:	f7ff fff0 	bl	80030ac <__sfp_lock_acquire>
 80030cc:	6a23      	ldr	r3, [r4, #32]
 80030ce:	b11b      	cbz	r3, 80030d8 <__sinit+0x14>
 80030d0:	e8bd 4010 	ldmia.w	sp!, {r4, lr}
 80030d4:	f7ff bff0 	b.w	80030b8 <__sfp_lock_release>
 80030d8:	4b04      	ldr	r3, [pc, #16]	@ (80030ec <__sinit+0x28>)
 80030da:	6223      	str	r3, [r4, #32]
 80030dc:	4b04      	ldr	r3, [pc, #16]	@ (80030f0 <__sinit+0x2c>)
 80030de:	681b      	ldr	r3, [r3, #0]
 80030e0:	2b00      	cmp	r3, #0
 80030e2:	d1f5      	bne.n	80030d0 <__sinit+0xc>
 80030e4:	f7ff ffc4 	bl	8003070 <global_stdio_init.part.0>
 80030e8:	e7f2      	b.n	80030d0 <__sinit+0xc>
 80030ea:	bf00      	nop
 80030ec:	08003031 	.word	0x08003031
 80030f0:	20004b6c 	.word	0x20004b6c

080030f4 <_fwalk_sglue>:
 80030f4:	e92d 43f8 	stmdb	sp!, {r3, r4, r5, r6, r7, r8, r9, lr}
 80030f8:	4607      	mov	r7, r0
 80030fa:	4688      	mov	r8, r1
 80030fc:	4614      	mov	r4, r2
 80030fe:	2600      	movs	r6, #0
 8003100:	e9d4 9501 	ldrd	r9, r5, [r4, #4]
 8003104:	f1b9 0901 	subs.w	r9, r9, #1
 8003108:	d505      	bpl.n	8003116 <_fwalk_sglue+0x22>
 800310a:	6824      	ldr	r4, [r4, #0]
 800310c:	2c00      	cmp	r4, #0
 800310e:	d1f7      	bne.n	8003100 <_fwalk_sglue+0xc>
 8003110:	4630      	mov	r0, r6
 8003112:	e8bd 83f8 	ldmia.w	sp!, {r3, r4, r5, r6, r7, r8, r9, pc}
 8003116:	89ab      	ldrh	r3, [r5, #12]
 8003118:	2b01      	cmp	r3, #1
 800311a:	d907      	bls.n	800312c <_fwalk_sglue+0x38>
 800311c:	f9b5 300e 	ldrsh.w	r3, [r5, #14]
 8003120:	3301      	adds	r3, #1
 8003122:	d003      	beq.n	800312c <_fwalk_sglue+0x38>
 8003124:	4629      	mov	r1, r5
 8003126:	4638      	mov	r0, r7
 8003128:	47c0      	blx	r8
 800312a:	4306      	orrs	r6, r0
 800312c:	3568      	adds	r5, #104	@ 0x68
 800312e:	e7e9      	b.n	8003104 <_fwalk_sglue+0x10>

08003130 <_puts_r>:
 8003130:	6a03      	ldr	r3, [r0, #32]
 8003132:	b570      	push	{r4, r5, r6, lr}
 8003134:	6884      	ldr	r4, [r0, #8]
 8003136:	4605      	mov	r5, r0
 8003138:	460e      	mov	r6, r1
 800313a:	b90b      	cbnz	r3, 8003140 <_puts_r+0x10>
 800313c:	f7ff ffc2 	bl	80030c4 <__sinit>
 8003140:	6e63      	ldr	r3, [r4, #100]	@ 0x64
 8003142:	07db      	lsls	r3, r3, #31
 8003144:	d405      	bmi.n	8003152 <_puts_r+0x22>
 8003146:	89a3      	ldrh	r3, [r4, #12]
 8003148:	0598      	lsls	r0, r3, #22
 800314a:	d402      	bmi.n	8003152 <_puts_r+0x22>
 800314c:	6da0      	ldr	r0, [r4, #88]	@ 0x58
 800314e:	f000 f99e 	bl	800348e <__retarget_lock_acquire_recursive>
 8003152:	89a3      	ldrh	r3, [r4, #12]
 8003154:	0719      	lsls	r1, r3, #28
 8003156:	d502      	bpl.n	800315e <_puts_r+0x2e>
 8003158:	6923      	ldr	r3, [r4, #16]
 800315a:	2b00      	cmp	r3, #0
 800315c:	d135      	bne.n	80031ca <_puts_r+0x9a>
 800315e:	4621      	mov	r1, r4
 8003160:	4628      	mov	r0, r5
 8003162:	f000 f8c5 	bl	80032f0 <__swsetup_r>
 8003166:	b380      	cbz	r0, 80031ca <_puts_r+0x9a>
 8003168:	f04f 35ff 	mov.w	r5, #4294967295
 800316c:	6e63      	ldr	r3, [r4, #100]	@ 0x64
 800316e:	07da      	lsls	r2, r3, #31
 8003170:	d405      	bmi.n	800317e <_puts_r+0x4e>
 8003172:	89a3      	ldrh	r3, [r4, #12]
 8003174:	059b      	lsls	r3, r3, #22
 8003176:	d402      	bmi.n	800317e <_puts_r+0x4e>
 8003178:	6da0      	ldr	r0, [r4, #88]	@ 0x58
 800317a:	f000 f989 	bl	8003490 <__retarget_lock_release_recursive>
 800317e:	4628      	mov	r0, r5
 8003180:	bd70      	pop	{r4, r5, r6, pc}
 8003182:	2b00      	cmp	r3, #0
 8003184:	da04      	bge.n	8003190 <_puts_r+0x60>
 8003186:	69a2      	ldr	r2, [r4, #24]
 8003188:	429a      	cmp	r2, r3
 800318a:	dc17      	bgt.n	80031bc <_puts_r+0x8c>
 800318c:	290a      	cmp	r1, #10
 800318e:	d015      	beq.n	80031bc <_puts_r+0x8c>
 8003190:	6823      	ldr	r3, [r4, #0]
 8003192:	1c5a      	adds	r2, r3, #1
 8003194:	6022      	str	r2, [r4, #0]
 8003196:	7019      	strb	r1, [r3, #0]
 8003198:	68a3      	ldr	r3, [r4, #8]
 800319a:	f816 1f01 	ldrb.w	r1, [r6, #1]!
 800319e:	3b01      	subs	r3, #1
 80031a0:	60a3      	str	r3, [r4, #8]
 80031a2:	2900      	cmp	r1, #0
 80031a4:	d1ed      	bne.n	8003182 <_puts_r+0x52>
 80031a6:	2b00      	cmp	r3, #0
 80031a8:	da11      	bge.n	80031ce <_puts_r+0x9e>
 80031aa:	4622      	mov	r2, r4
 80031ac:	210a      	movs	r1, #10
 80031ae:	4628      	mov	r0, r5
 80031b0:	f000 f85f 	bl	8003272 <__swbuf_r>
 80031b4:	3001      	adds	r0, #1
 80031b6:	d0d7      	beq.n	8003168 <_puts_r+0x38>
 80031b8:	250a      	movs	r5, #10
 80031ba:	e7d7      	b.n	800316c <_puts_r+0x3c>
 80031bc:	4622      	mov	r2, r4
 80031be:	4628      	mov	r0, r5
 80031c0:	f000 f857 	bl	8003272 <__swbuf_r>
 80031c4:	3001      	adds	r0, #1
 80031c6:	d1e7      	bne.n	8003198 <_puts_r+0x68>
 80031c8:	e7ce      	b.n	8003168 <_puts_r+0x38>
 80031ca:	3e01      	subs	r6, #1
 80031cc:	e7e4      	b.n	8003198 <_puts_r+0x68>
 80031ce:	6823      	ldr	r3, [r4, #0]
 80031d0:	1c5a      	adds	r2, r3, #1
 80031d2:	6022      	str	r2, [r4, #0]
 80031d4:	220a      	movs	r2, #10
 80031d6:	701a      	strb	r2, [r3, #0]
 80031d8:	e7ee      	b.n	80031b8 <_puts_r+0x88>
	...

080031dc <puts>:
 80031dc:	4b02      	ldr	r3, [pc, #8]	@ (80031e8 <puts+0xc>)
 80031de:	4601      	mov	r1, r0
 80031e0:	6818      	ldr	r0, [r3, #0]
 80031e2:	f7ff bfa5 	b.w	8003130 <_puts_r>
 80031e6:	bf00      	nop
 80031e8:	2000001c 	.word	0x2000001c

080031ec <__sread>:
 80031ec:	b510      	push	{r4, lr}
 80031ee:	460c      	mov	r4, r1
 80031f0:	f9b1 100e 	ldrsh.w	r1, [r1, #14]
 80031f4:	f000 f8fc 	bl	80033f0 <_read_r>
 80031f8:	2800      	cmp	r0, #0
 80031fa:	bfab      	itete	ge
 80031fc:	6d63      	ldrge	r3, [r4, #84]	@ 0x54
 80031fe:	89a3      	ldrhlt	r3, [r4, #12]
 8003200:	181b      	addge	r3, r3, r0
 8003202:	f423 5380 	biclt.w	r3, r3, #4096	@ 0x1000
 8003206:	bfac      	ite	ge
 8003208:	6563      	strge	r3, [r4, #84]	@ 0x54
 800320a:	81a3      	strhlt	r3, [r4, #12]
 800320c:	bd10      	pop	{r4, pc}

0800320e <__swrite>:
 800320e:	e92d 41f0 	stmdb	sp!, {r4, r5, r6, r7, r8, lr}
 8003212:	461f      	mov	r7, r3
 8003214:	898b      	ldrh	r3, [r1, #12]
 8003216:	05db      	lsls	r3, r3, #23
 8003218:	4605      	mov	r5, r0
 800321a:	460c      	mov	r4, r1
 800321c:	4616      	mov	r6, r2
 800321e:	d505      	bpl.n	800322c <__swrite+0x1e>
 8003220:	f9b1 100e 	ldrsh.w	r1, [r1, #14]
 8003224:	2302      	movs	r3, #2
 8003226:	2200      	movs	r2, #0
 8003228:	f000 f8d0 	bl	80033cc <_lseek_r>
 800322c:	89a3      	ldrh	r3, [r4, #12]
 800322e:	f9b4 100e 	ldrsh.w	r1, [r4, #14]
 8003232:	f423 5380 	bic.w	r3, r3, #4096	@ 0x1000
 8003236:	81a3      	strh	r3, [r4, #12]
 8003238:	4632      	mov	r2, r6
 800323a:	463b      	mov	r3, r7
 800323c:	4628      	mov	r0, r5
 800323e:	e8bd 41f0 	ldmia.w	sp!, {r4, r5, r6, r7, r8, lr}
 8003242:	f000 b8e7 	b.w	8003414 <_write_r>

08003246 <__sseek>:
 8003246:	b510      	push	{r4, lr}
 8003248:	460c      	mov	r4, r1
 800324a:	f9b1 100e 	ldrsh.w	r1, [r1, #14]
 800324e:	f000 f8bd 	bl	80033cc <_lseek_r>
 8003252:	1c43      	adds	r3, r0, #1
 8003254:	89a3      	ldrh	r3, [r4, #12]
 8003256:	bf15      	itete	ne
 8003258:	6560      	strne	r0, [r4, #84]	@ 0x54
 800325a:	f423 5380 	biceq.w	r3, r3, #4096	@ 0x1000
 800325e:	f443 5380 	orrne.w	r3, r3, #4096	@ 0x1000
 8003262:	81a3      	strheq	r3, [r4, #12]
 8003264:	bf18      	it	ne
 8003266:	81a3      	strhne	r3, [r4, #12]
 8003268:	bd10      	pop	{r4, pc}

0800326a <__sclose>:
 800326a:	f9b1 100e 	ldrsh.w	r1, [r1, #14]
 800326e:	f000 b89d 	b.w	80033ac <_close_r>

08003272 <__swbuf_r>:
 8003272:	b5f8      	push	{r3, r4, r5, r6, r7, lr}
 8003274:	460e      	mov	r6, r1
 8003276:	4614      	mov	r4, r2
 8003278:	4605      	mov	r5, r0
 800327a:	b118      	cbz	r0, 8003284 <__swbuf_r+0x12>
 800327c:	6a03      	ldr	r3, [r0, #32]
 800327e:	b90b      	cbnz	r3, 8003284 <__swbuf_r+0x12>
 8003280:	f7ff ff20 	bl	80030c4 <__sinit>
 8003284:	69a3      	ldr	r3, [r4, #24]
 8003286:	60a3      	str	r3, [r4, #8]
 8003288:	89a3      	ldrh	r3, [r4, #12]
 800328a:	071a      	lsls	r2, r3, #28
 800328c:	d501      	bpl.n	8003292 <__swbuf_r+0x20>
 800328e:	6923      	ldr	r3, [r4, #16]
 8003290:	b943      	cbnz	r3, 80032a4 <__swbuf_r+0x32>
 8003292:	4621      	mov	r1, r4
 8003294:	4628      	mov	r0, r5
 8003296:	f000 f82b 	bl	80032f0 <__swsetup_r>
 800329a:	b118      	cbz	r0, 80032a4 <__swbuf_r+0x32>
 800329c:	f04f 37ff 	mov.w	r7, #4294967295
 80032a0:	4638      	mov	r0, r7
 80032a2:	bdf8      	pop	{r3, r4, r5, r6, r7, pc}
 80032a4:	6823      	ldr	r3, [r4, #0]
 80032a6:	6922      	ldr	r2, [r4, #16]
 80032a8:	1a98      	subs	r0, r3, r2
 80032aa:	6963      	ldr	r3, [r4, #20]
 80032ac:	b2f6      	uxtb	r6, r6
 80032ae:	4283      	cmp	r3, r0
 80032b0:	4637      	mov	r7, r6
 80032b2:	dc05      	bgt.n	80032c0 <__swbuf_r+0x4e>
 80032b4:	4621      	mov	r1, r4
 80032b6:	4628      	mov	r0, r5
 80032b8:	f000 fa76 	bl	80037a8 <_fflush_r>
 80032bc:	2800      	cmp	r0, #0
 80032be:	d1ed      	bne.n	800329c <__swbuf_r+0x2a>
 80032c0:	68a3      	ldr	r3, [r4, #8]
 80032c2:	3b01      	subs	r3, #1
 80032c4:	60a3      	str	r3, [r4, #8]
 80032c6:	6823      	ldr	r3, [r4, #0]
 80032c8:	1c5a      	adds	r2, r3, #1
 80032ca:	6022      	str	r2, [r4, #0]
 80032cc:	701e      	strb	r6, [r3, #0]
 80032ce:	6962      	ldr	r2, [r4, #20]
 80032d0:	1c43      	adds	r3, r0, #1
 80032d2:	429a      	cmp	r2, r3
 80032d4:	d004      	beq.n	80032e0 <__swbuf_r+0x6e>
 80032d6:	89a3      	ldrh	r3, [r4, #12]
 80032d8:	07db      	lsls	r3, r3, #31
 80032da:	d5e1      	bpl.n	80032a0 <__swbuf_r+0x2e>
 80032dc:	2e0a      	cmp	r6, #10
 80032de:	d1df      	bne.n	80032a0 <__swbuf_r+0x2e>
 80032e0:	4621      	mov	r1, r4
 80032e2:	4628      	mov	r0, r5
 80032e4:	f000 fa60 	bl	80037a8 <_fflush_r>
 80032e8:	2800      	cmp	r0, #0
 80032ea:	d0d9      	beq.n	80032a0 <__swbuf_r+0x2e>
 80032ec:	e7d6      	b.n	800329c <__swbuf_r+0x2a>
	...

080032f0 <__swsetup_r>:
 80032f0:	b538      	push	{r3, r4, r5, lr}
 80032f2:	4b29      	ldr	r3, [pc, #164]	@ (8003398 <__swsetup_r+0xa8>)
 80032f4:	4605      	mov	r5, r0
 80032f6:	6818      	ldr	r0, [r3, #0]
 80032f8:	460c      	mov	r4, r1
 80032fa:	b118      	cbz	r0, 8003304 <__swsetup_r+0x14>
 80032fc:	6a03      	ldr	r3, [r0, #32]
 80032fe:	b90b      	cbnz	r3, 8003304 <__swsetup_r+0x14>
 8003300:	f7ff fee0 	bl	80030c4 <__sinit>
 8003304:	f9b4 300c 	ldrsh.w	r3, [r4, #12]
 8003308:	0719      	lsls	r1, r3, #28
 800330a:	d422      	bmi.n	8003352 <__swsetup_r+0x62>
 800330c:	06da      	lsls	r2, r3, #27
 800330e:	d407      	bmi.n	8003320 <__swsetup_r+0x30>
 8003310:	2209      	movs	r2, #9
 8003312:	602a      	str	r2, [r5, #0]
 8003314:	f043 0340 	orr.w	r3, r3, #64	@ 0x40
 8003318:	81a3      	strh	r3, [r4, #12]
 800331a:	f04f 30ff 	mov.w	r0, #4294967295
 800331e:	e033      	b.n	8003388 <__swsetup_r+0x98>
 8003320:	0758      	lsls	r0, r3, #29
 8003322:	d512      	bpl.n	800334a <__swsetup_r+0x5a>
 8003324:	6b61      	ldr	r1, [r4, #52]	@ 0x34
 8003326:	b141      	cbz	r1, 800333a <__swsetup_r+0x4a>
 8003328:	f104 0344 	add.w	r3, r4, #68	@ 0x44
 800332c:	4299      	cmp	r1, r3
 800332e:	d002      	beq.n	8003336 <__swsetup_r+0x46>
 8003330:	4628      	mov	r0, r5
 8003332:	f000 f8bd 	bl	80034b0 <_free_r>
 8003336:	2300      	movs	r3, #0
 8003338:	6363      	str	r3, [r4, #52]	@ 0x34
 800333a:	89a3      	ldrh	r3, [r4, #12]
 800333c:	f023 0324 	bic.w	r3, r3, #36	@ 0x24
 8003340:	81a3      	strh	r3, [r4, #12]
 8003342:	2300      	movs	r3, #0
 8003344:	6063      	str	r3, [r4, #4]
 8003346:	6923      	ldr	r3, [r4, #16]
 8003348:	6023      	str	r3, [r4, #0]
 800334a:	89a3      	ldrh	r3, [r4, #12]
 800334c:	f043 0308 	orr.w	r3, r3, #8
 8003350:	81a3      	strh	r3, [r4, #12]
 8003352:	6923      	ldr	r3, [r4, #16]
 8003354:	b94b      	cbnz	r3, 800336a <__swsetup_r+0x7a>
 8003356:	89a3      	ldrh	r3, [r4, #12]
 8003358:	f403 7320 	and.w	r3, r3, #640	@ 0x280
 800335c:	f5b3 7f00 	cmp.w	r3, #512	@ 0x200
 8003360:	d003      	beq.n	800336a <__swsetup_r+0x7a>
 8003362:	4621      	mov	r1, r4
 8003364:	4628      	mov	r0, r5
 8003366:	f000 fa6d 	bl	8003844 <__smakebuf_r>
 800336a:	f9b4 300c 	ldrsh.w	r3, [r4, #12]
 800336e:	f013 0201 	ands.w	r2, r3, #1
 8003372:	d00a      	beq.n	800338a <__swsetup_r+0x9a>
 8003374:	2200      	movs	r2, #0
 8003376:	60a2      	str	r2, [r4, #8]
 8003378:	6962      	ldr	r2, [r4, #20]
 800337a:	4252      	negs	r2, r2
 800337c:	61a2      	str	r2, [r4, #24]
 800337e:	6922      	ldr	r2, [r4, #16]
 8003380:	b942      	cbnz	r2, 8003394 <__swsetup_r+0xa4>
 8003382:	f013 0080 	ands.w	r0, r3, #128	@ 0x80
 8003386:	d1c5      	bne.n	8003314 <__swsetup_r+0x24>
 8003388:	bd38      	pop	{r3, r4, r5, pc}
 800338a:	0799      	lsls	r1, r3, #30
 800338c:	bf58      	it	pl
 800338e:	6962      	ldrpl	r2, [r4, #20]
 8003390:	60a2      	str	r2, [r4, #8]
 8003392:	e7f4      	b.n	800337e <__swsetup_r+0x8e>
 8003394:	2000      	movs	r0, #0
 8003396:	e7f7      	b.n	8003388 <__swsetup_r+0x98>
 8003398:	2000001c 	.word	0x2000001c

0800339c <memset>:
 800339c:	4402      	add	r2, r0
 800339e:	4603      	mov	r3, r0
 80033a0:	4293      	cmp	r3, r2
 80033a2:	d100      	bne.n	80033a6 <memset+0xa>
 80033a4:	4770      	bx	lr
 80033a6:	f803 1b01 	strb.w	r1, [r3], #1
 80033aa:	e7f9      	b.n	80033a0 <memset+0x4>

080033ac <_close_r>:
 80033ac:	b538      	push	{r3, r4, r5, lr}
 80033ae:	4d06      	ldr	r5, [pc, #24]	@ (80033c8 <_close_r+0x1c>)
 80033b0:	2300      	movs	r3, #0
 80033b2:	4604      	mov	r4, r0
 80033b4:	4608      	mov	r0, r1
 80033b6:	602b      	str	r3, [r5, #0]
 80033b8:	f7fd f9f2 	bl	80007a0 <_close>
 80033bc:	1c43      	adds	r3, r0, #1
 80033be:	d102      	bne.n	80033c6 <_close_r+0x1a>
 80033c0:	682b      	ldr	r3, [r5, #0]
 80033c2:	b103      	cbz	r3, 80033c6 <_close_r+0x1a>
 80033c4:	6023      	str	r3, [r4, #0]
 80033c6:	bd38      	pop	{r3, r4, r5, pc}
 80033c8:	20004b70 	.word	0x20004b70

080033cc <_lseek_r>:
 80033cc:	b538      	push	{r3, r4, r5, lr}
 80033ce:	4d07      	ldr	r5, [pc, #28]	@ (80033ec <_lseek_r+0x20>)
 80033d0:	4604      	mov	r4, r0
 80033d2:	4608      	mov	r0, r1
 80033d4:	4611      	mov	r1, r2
 80033d6:	2200      	movs	r2, #0
 80033d8:	602a      	str	r2, [r5, #0]
 80033da:	461a      	mov	r2, r3
 80033dc:	f7fd f9ea 	bl	80007b4 <_lseek>
 80033e0:	1c43      	adds	r3, r0, #1
 80033e2:	d102      	bne.n	80033ea <_lseek_r+0x1e>
 80033e4:	682b      	ldr	r3, [r5, #0]
 80033e6:	b103      	cbz	r3, 80033ea <_lseek_r+0x1e>
 80033e8:	6023      	str	r3, [r4, #0]
 80033ea:	bd38      	pop	{r3, r4, r5, pc}
 80033ec:	20004b70 	.word	0x20004b70

080033f0 <_read_r>:
 80033f0:	b538      	push	{r3, r4, r5, lr}
 80033f2:	4d07      	ldr	r5, [pc, #28]	@ (8003410 <_read_r+0x20>)
 80033f4:	4604      	mov	r4, r0
 80033f6:	4608      	mov	r0, r1
 80033f8:	4611      	mov	r1, r2
 80033fa:	2200      	movs	r2, #0
 80033fc:	602a      	str	r2, [r5, #0]
 80033fe:	461a      	mov	r2, r3
 8003400:	f7fd f9b2 	bl	8000768 <_read>
 8003404:	1c43      	adds	r3, r0, #1
 8003406:	d102      	bne.n	800340e <_read_r+0x1e>
 8003408:	682b      	ldr	r3, [r5, #0]
 800340a:	b103      	cbz	r3, 800340e <_read_r+0x1e>
 800340c:	6023      	str	r3, [r4, #0]
 800340e:	bd38      	pop	{r3, r4, r5, pc}
 8003410:	20004b70 	.word	0x20004b70

08003414 <_write_r>:
 8003414:	b538      	push	{r3, r4, r5, lr}
 8003416:	4d07      	ldr	r5, [pc, #28]	@ (8003434 <_write_r+0x20>)
 8003418:	4604      	mov	r4, r0
 800341a:	4608      	mov	r0, r1
 800341c:	4611      	mov	r1, r2
 800341e:	2200      	movs	r2, #0
 8003420:	602a      	str	r2, [r5, #0]
 8003422:	461a      	mov	r2, r3
 8003424:	f7fd f9ae 	bl	8000784 <_write>
 8003428:	1c43      	adds	r3, r0, #1
 800342a:	d102      	bne.n	8003432 <_write_r+0x1e>
 800342c:	682b      	ldr	r3, [r5, #0]
 800342e:	b103      	cbz	r3, 8003432 <_write_r+0x1e>
 8003430:	6023      	str	r3, [r4, #0]
 8003432:	bd38      	pop	{r3, r4, r5, pc}
 8003434:	20004b70 	.word	0x20004b70

08003438 <__errno>:
 8003438:	4b01      	ldr	r3, [pc, #4]	@ (8003440 <__errno+0x8>)
 800343a:	6818      	ldr	r0, [r3, #0]
 800343c:	4770      	bx	lr
 800343e:	bf00      	nop
 8003440:	2000001c 	.word	0x2000001c

08003444 <__libc_init_array>:
 8003444:	b570      	push	{r4, r5, r6, lr}
 8003446:	4d0d      	ldr	r5, [pc, #52]	@ (800347c <__libc_init_array+0x38>)
 8003448:	4c0d      	ldr	r4, [pc, #52]	@ (8003480 <__libc_init_array+0x3c>)
 800344a:	1b64      	subs	r4, r4, r5
 800344c:	10a4      	asrs	r4, r4, #2
 800344e:	2600      	movs	r6, #0
 8003450:	42a6      	cmp	r6, r4
 8003452:	d109      	bne.n	8003468 <__libc_init_array+0x24>
 8003454:	4d0b      	ldr	r5, [pc, #44]	@ (8003484 <__libc_init_array+0x40>)
 8003456:	4c0c      	ldr	r4, [pc, #48]	@ (8003488 <__libc_init_array+0x44>)
 8003458:	f000 fa62 	bl	8003920 <_init>
 800345c:	1b64      	subs	r4, r4, r5
 800345e:	10a4      	asrs	r4, r4, #2
 8003460:	2600      	movs	r6, #0
 8003462:	42a6      	cmp	r6, r4
 8003464:	d105      	bne.n	8003472 <__libc_init_array+0x2e>
 8003466:	bd70      	pop	{r4, r5, r6, pc}
 8003468:	f855 3b04 	ldr.w	r3, [r5], #4
 800346c:	4798      	blx	r3
 800346e:	3601      	adds	r6, #1
 8003470:	e7ee      	b.n	8003450 <__libc_init_array+0xc>
 8003472:	f855 3b04 	ldr.w	r3, [r5], #4
 8003476:	4798      	blx	r3
 8003478:	3601      	adds	r6, #1
 800347a:	e7f2      	b.n	8003462 <__libc_init_array+0x1e>
 800347c:	08003a3c 	.word	0x08003a3c
 8003480:	08003a3c 	.word	0x08003a3c
 8003484:	08003a3c 	.word	0x08003a3c
 8003488:	08003a40 	.word	0x08003a40

0800348c <__retarget_lock_init_recursive>:
 800348c:	4770      	bx	lr

0800348e <__retarget_lock_acquire_recursive>:
 800348e:	4770      	bx	lr

08003490 <__retarget_lock_release_recursive>:
 8003490:	4770      	bx	lr

08003492 <memcpy>:
 8003492:	440a      	add	r2, r1
 8003494:	4291      	cmp	r1, r2
 8003496:	f100 33ff 	add.w	r3, r0, #4294967295
 800349a:	d100      	bne.n	800349e <memcpy+0xc>
 800349c:	4770      	bx	lr
 800349e:	b510      	push	{r4, lr}
 80034a0:	f811 4b01 	ldrb.w	r4, [r1], #1
 80034a4:	f803 4f01 	strb.w	r4, [r3, #1]!
 80034a8:	4291      	cmp	r1, r2
 80034aa:	d1f9      	bne.n	80034a0 <memcpy+0xe>
 80034ac:	bd10      	pop	{r4, pc}
	...

080034b0 <_free_r>:
 80034b0:	b538      	push	{r3, r4, r5, lr}
 80034b2:	4605      	mov	r5, r0
 80034b4:	2900      	cmp	r1, #0
 80034b6:	d041      	beq.n	800353c <_free_r+0x8c>
 80034b8:	f851 3c04 	ldr.w	r3, [r1, #-4]
 80034bc:	1f0c      	subs	r4, r1, #4
 80034be:	2b00      	cmp	r3, #0
 80034c0:	bfb8      	it	lt
 80034c2:	18e4      	addlt	r4, r4, r3
 80034c4:	f000 f8e0 	bl	8003688 <__malloc_lock>
 80034c8:	4a1d      	ldr	r2, [pc, #116]	@ (8003540 <_free_r+0x90>)
 80034ca:	6813      	ldr	r3, [r2, #0]
 80034cc:	b933      	cbnz	r3, 80034dc <_free_r+0x2c>
 80034ce:	6063      	str	r3, [r4, #4]
 80034d0:	6014      	str	r4, [r2, #0]
 80034d2:	4628      	mov	r0, r5
 80034d4:	e8bd 4038 	ldmia.w	sp!, {r3, r4, r5, lr}
 80034d8:	f000 b8dc 	b.w	8003694 <__malloc_unlock>
 80034dc:	42a3      	cmp	r3, r4
 80034de:	d908      	bls.n	80034f2 <_free_r+0x42>
 80034e0:	6820      	ldr	r0, [r4, #0]
 80034e2:	1821      	adds	r1, r4, r0
 80034e4:	428b      	cmp	r3, r1
 80034e6:	bf01      	itttt	eq
 80034e8:	6819      	ldreq	r1, [r3, #0]
 80034ea:	685b      	ldreq	r3, [r3, #4]
 80034ec:	1809      	addeq	r1, r1, r0
 80034ee:	6021      	streq	r1, [r4, #0]
 80034f0:	e7ed      	b.n	80034ce <_free_r+0x1e>
 80034f2:	461a      	mov	r2, r3
 80034f4:	685b      	ldr	r3, [r3, #4]
 80034f6:	b10b      	cbz	r3, 80034fc <_free_r+0x4c>
 80034f8:	42a3      	cmp	r3, r4
 80034fa:	d9fa      	bls.n	80034f2 <_free_r+0x42>
 80034fc:	6811      	ldr	r1, [r2, #0]
 80034fe:	1850      	adds	r0, r2, r1
 8003500:	42a0      	cmp	r0, r4
 8003502:	d10b      	bne.n	800351c <_free_r+0x6c>
 8003504:	6820      	ldr	r0, [r4, #0]
 8003506:	4401      	add	r1, r0
 8003508:	1850      	adds	r0, r2, r1
 800350a:	4283      	cmp	r3, r0
 800350c:	6011      	str	r1, [r2, #0]
 800350e:	d1e0      	bne.n	80034d2 <_free_r+0x22>
 8003510:	6818      	ldr	r0, [r3, #0]
 8003512:	685b      	ldr	r3, [r3, #4]
 8003514:	6053      	str	r3, [r2, #4]
 8003516:	4408      	add	r0, r1
 8003518:	6010      	str	r0, [r2, #0]
 800351a:	e7da      	b.n	80034d2 <_free_r+0x22>
 800351c:	d902      	bls.n	8003524 <_free_r+0x74>
 800351e:	230c      	movs	r3, #12
 8003520:	602b      	str	r3, [r5, #0]
 8003522:	e7d6      	b.n	80034d2 <_free_r+0x22>
 8003524:	6820      	ldr	r0, [r4, #0]
 8003526:	1821      	adds	r1, r4, r0
 8003528:	428b      	cmp	r3, r1
 800352a:	bf04      	itt	eq
 800352c:	6819      	ldreq	r1, [r3, #0]
 800352e:	685b      	ldreq	r3, [r3, #4]
 8003530:	6063      	str	r3, [r4, #4]
 8003532:	bf04      	itt	eq
 8003534:	1809      	addeq	r1, r1, r0
 8003536:	6021      	streq	r1, [r4, #0]
 8003538:	6054      	str	r4, [r2, #4]
 800353a:	e7ca      	b.n	80034d2 <_free_r+0x22>
 800353c:	bd38      	pop	{r3, r4, r5, pc}
 800353e:	bf00      	nop
 8003540:	20004b7c 	.word	0x20004b7c

08003544 <sbrk_aligned>:
 8003544:	b570      	push	{r4, r5, r6, lr}
 8003546:	4e0f      	ldr	r6, [pc, #60]	@ (8003584 <sbrk_aligned+0x40>)
 8003548:	460c      	mov	r4, r1
 800354a:	6831      	ldr	r1, [r6, #0]
 800354c:	4605      	mov	r5, r0
 800354e:	b911      	cbnz	r1, 8003556 <sbrk_aligned+0x12>
 8003550:	f000 f9d6 	bl	8003900 <_sbrk_r>
 8003554:	6030      	str	r0, [r6, #0]
 8003556:	4621      	mov	r1, r4
 8003558:	4628      	mov	r0, r5
 800355a:	f000 f9d1 	bl	8003900 <_sbrk_r>
 800355e:	1c43      	adds	r3, r0, #1
 8003560:	d103      	bne.n	800356a <sbrk_aligned+0x26>
 8003562:	f04f 34ff 	mov.w	r4, #4294967295
 8003566:	4620      	mov	r0, r4
 8003568:	bd70      	pop	{r4, r5, r6, pc}
 800356a:	1cc4      	adds	r4, r0, #3
 800356c:	f024 0403 	bic.w	r4, r4, #3
 8003570:	42a0      	cmp	r0, r4
 8003572:	d0f8      	beq.n	8003566 <sbrk_aligned+0x22>
 8003574:	1a21      	subs	r1, r4, r0
 8003576:	4628      	mov	r0, r5
 8003578:	f000 f9c2 	bl	8003900 <_sbrk_r>
 800357c:	3001      	adds	r0, #1
 800357e:	d1f2      	bne.n	8003566 <sbrk_aligned+0x22>
 8003580:	e7ef      	b.n	8003562 <sbrk_aligned+0x1e>
 8003582:	bf00      	nop
 8003584:	20004b78 	.word	0x20004b78

08003588 <_malloc_r>:
 8003588:	e92d 43f8 	stmdb	sp!, {r3, r4, r5, r6, r7, r8, r9, lr}
 800358c:	1ccd      	adds	r5, r1, #3
 800358e:	f025 0503 	bic.w	r5, r5, #3
 8003592:	3508      	adds	r5, #8
 8003594:	2d0c      	cmp	r5, #12
 8003596:	bf38      	it	cc
 8003598:	250c      	movcc	r5, #12
 800359a:	2d00      	cmp	r5, #0
 800359c:	4606      	mov	r6, r0
 800359e:	db01      	blt.n	80035a4 <_malloc_r+0x1c>
 80035a0:	42a9      	cmp	r1, r5
 80035a2:	d904      	bls.n	80035ae <_malloc_r+0x26>
 80035a4:	230c      	movs	r3, #12
 80035a6:	6033      	str	r3, [r6, #0]
 80035a8:	2000      	movs	r0, #0
 80035aa:	e8bd 83f8 	ldmia.w	sp!, {r3, r4, r5, r6, r7, r8, r9, pc}
 80035ae:	f8df 80d4 	ldr.w	r8, [pc, #212]	@ 8003684 <_malloc_r+0xfc>
 80035b2:	f000 f869 	bl	8003688 <__malloc_lock>
 80035b6:	f8d8 3000 	ldr.w	r3, [r8]
 80035ba:	461c      	mov	r4, r3
 80035bc:	bb44      	cbnz	r4, 8003610 <_malloc_r+0x88>
 80035be:	4629      	mov	r1, r5
 80035c0:	4630      	mov	r0, r6
 80035c2:	f7ff ffbf 	bl	8003544 <sbrk_aligned>
 80035c6:	1c43      	adds	r3, r0, #1
 80035c8:	4604      	mov	r4, r0
 80035ca:	d158      	bne.n	800367e <_malloc_r+0xf6>
 80035cc:	f8d8 4000 	ldr.w	r4, [r8]
 80035d0:	4627      	mov	r7, r4
 80035d2:	2f00      	cmp	r7, #0
 80035d4:	d143      	bne.n	800365e <_malloc_r+0xd6>
 80035d6:	2c00      	cmp	r4, #0
 80035d8:	d04b      	beq.n	8003672 <_malloc_r+0xea>
 80035da:	6823      	ldr	r3, [r4, #0]
 80035dc:	4639      	mov	r1, r7
 80035de:	4630      	mov	r0, r6
 80035e0:	eb04 0903 	add.w	r9, r4, r3
 80035e4:	f000 f98c 	bl	8003900 <_sbrk_r>
 80035e8:	4581      	cmp	r9, r0
 80035ea:	d142      	bne.n	8003672 <_malloc_r+0xea>
 80035ec:	6821      	ldr	r1, [r4, #0]
 80035ee:	1a6d      	subs	r5, r5, r1
 80035f0:	4629      	mov	r1, r5
 80035f2:	4630      	mov	r0, r6
 80035f4:	f7ff ffa6 	bl	8003544 <sbrk_aligned>
 80035f8:	3001      	adds	r0, #1
 80035fa:	d03a      	beq.n	8003672 <_malloc_r+0xea>
 80035fc:	6823      	ldr	r3, [r4, #0]
 80035fe:	442b      	add	r3, r5
 8003600:	6023      	str	r3, [r4, #0]
 8003602:	f8d8 3000 	ldr.w	r3, [r8]
 8003606:	685a      	ldr	r2, [r3, #4]
 8003608:	bb62      	cbnz	r2, 8003664 <_malloc_r+0xdc>
 800360a:	f8c8 7000 	str.w	r7, [r8]
 800360e:	e00f      	b.n	8003630 <_malloc_r+0xa8>
 8003610:	6822      	ldr	r2, [r4, #0]
 8003612:	1b52      	subs	r2, r2, r5
 8003614:	d420      	bmi.n	8003658 <_malloc_r+0xd0>
 8003616:	2a0b      	cmp	r2, #11
 8003618:	d917      	bls.n	800364a <_malloc_r+0xc2>
 800361a:	1961      	adds	r1, r4, r5
 800361c:	42a3      	cmp	r3, r4
 800361e:	6025      	str	r5, [r4, #0]
 8003620:	bf18      	it	ne
 8003622:	6059      	strne	r1, [r3, #4]
 8003624:	6863      	ldr	r3, [r4, #4]
 8003626:	bf08      	it	eq
 8003628:	f8c8 1000 	streq.w	r1, [r8]
 800362c:	5162      	str	r2, [r4, r5]
 800362e:	604b      	str	r3, [r1, #4]
 8003630:	4630      	mov	r0, r6
 8003632:	f000 f82f 	bl	8003694 <__malloc_unlock>
 8003636:	f104 000b 	add.w	r0, r4, #11
 800363a:	1d23      	adds	r3, r4, #4
 800363c:	f020 0007 	bic.w	r0, r0, #7
 8003640:	1ac2      	subs	r2, r0, r3
 8003642:	bf1c      	itt	ne
 8003644:	1a1b      	subne	r3, r3, r0
 8003646:	50a3      	strne	r3, [r4, r2]
 8003648:	e7af      	b.n	80035aa <_malloc_r+0x22>
 800364a:	6862      	ldr	r2, [r4, #4]
 800364c:	42a3      	cmp	r3, r4
 800364e:	bf0c      	ite	eq
 8003650:	f8c8 2000 	streq.w	r2, [r8]
 8003654:	605a      	strne	r2, [r3, #4]
 8003656:	e7eb      	b.n	8003630 <_malloc_r+0xa8>
 8003658:	4623      	mov	r3, r4
 800365a:	6864      	ldr	r4, [r4, #4]
 800365c:	e7ae      	b.n	80035bc <_malloc_r+0x34>
 800365e:	463c      	mov	r4, r7
 8003660:	687f      	ldr	r7, [r7, #4]
 8003662:	e7b6      	b.n	80035d2 <_malloc_r+0x4a>
 8003664:	461a      	mov	r2, r3
 8003666:	685b      	ldr	r3, [r3, #4]
 8003668:	42a3      	cmp	r3, r4
 800366a:	d1fb      	bne.n	8003664 <_malloc_r+0xdc>
 800366c:	2300      	movs	r3, #0
 800366e:	6053      	str	r3, [r2, #4]
 8003670:	e7de      	b.n	8003630 <_malloc_r+0xa8>
 8003672:	230c      	movs	r3, #12
 8003674:	6033      	str	r3, [r6, #0]
 8003676:	4630      	mov	r0, r6
 8003678:	f000 f80c 	bl	8003694 <__malloc_unlock>
 800367c:	e794      	b.n	80035a8 <_malloc_r+0x20>
 800367e:	6005      	str	r5, [r0, #0]
 8003680:	e7d6      	b.n	8003630 <_malloc_r+0xa8>
 8003682:	bf00      	nop
 8003684:	20004b7c 	.word	0x20004b7c

08003688 <__malloc_lock>:
 8003688:	4801      	ldr	r0, [pc, #4]	@ (8003690 <__malloc_lock+0x8>)
 800368a:	f7ff bf00 	b.w	800348e <__retarget_lock_acquire_recursive>
 800368e:	bf00      	nop
 8003690:	20004b74 	.word	0x20004b74

08003694 <__malloc_unlock>:
 8003694:	4801      	ldr	r0, [pc, #4]	@ (800369c <__malloc_unlock+0x8>)
 8003696:	f7ff befb 	b.w	8003490 <__retarget_lock_release_recursive>
 800369a:	bf00      	nop
 800369c:	20004b74 	.word	0x20004b74

080036a0 <__sflush_r>:
 80036a0:	f9b1 200c 	ldrsh.w	r2, [r1, #12]
 80036a4:	e92d 41f0 	stmdb	sp!, {r4, r5, r6, r7, r8, lr}
 80036a8:	0716      	lsls	r6, r2, #28
 80036aa:	4605      	mov	r5, r0
 80036ac:	460c      	mov	r4, r1
 80036ae:	d454      	bmi.n	800375a <__sflush_r+0xba>
 80036b0:	684b      	ldr	r3, [r1, #4]
 80036b2:	2b00      	cmp	r3, #0
 80036b4:	dc02      	bgt.n	80036bc <__sflush_r+0x1c>
 80036b6:	6c0b      	ldr	r3, [r1, #64]	@ 0x40
 80036b8:	2b00      	cmp	r3, #0
 80036ba:	dd48      	ble.n	800374e <__sflush_r+0xae>
 80036bc:	6ae6      	ldr	r6, [r4, #44]	@ 0x2c
 80036be:	2e00      	cmp	r6, #0
 80036c0:	d045      	beq.n	800374e <__sflush_r+0xae>
 80036c2:	2300      	movs	r3, #0
 80036c4:	f412 5280 	ands.w	r2, r2, #4096	@ 0x1000
 80036c8:	682f      	ldr	r7, [r5, #0]
 80036ca:	6a21      	ldr	r1, [r4, #32]
 80036cc:	602b      	str	r3, [r5, #0]
 80036ce:	d030      	beq.n	8003732 <__sflush_r+0x92>
 80036d0:	6d62      	ldr	r2, [r4, #84]	@ 0x54
 80036d2:	89a3      	ldrh	r3, [r4, #12]
 80036d4:	0759      	lsls	r1, r3, #29
 80036d6:	d505      	bpl.n	80036e4 <__sflush_r+0x44>
 80036d8:	6863      	ldr	r3, [r4, #4]
 80036da:	1ad2      	subs	r2, r2, r3
 80036dc:	6b63      	ldr	r3, [r4, #52]	@ 0x34
 80036de:	b10b      	cbz	r3, 80036e4 <__sflush_r+0x44>
 80036e0:	6c23      	ldr	r3, [r4, #64]	@ 0x40
 80036e2:	1ad2      	subs	r2, r2, r3
 80036e4:	2300      	movs	r3, #0
 80036e6:	6ae6      	ldr	r6, [r4, #44]	@ 0x2c
 80036e8:	6a21      	ldr	r1, [r4, #32]
 80036ea:	4628      	mov	r0, r5
 80036ec:	47b0      	blx	r6
 80036ee:	1c43      	adds	r3, r0, #1
 80036f0:	89a3      	ldrh	r3, [r4, #12]
 80036f2:	d106      	bne.n	8003702 <__sflush_r+0x62>
 80036f4:	6829      	ldr	r1, [r5, #0]
 80036f6:	291d      	cmp	r1, #29
 80036f8:	d82b      	bhi.n	8003752 <__sflush_r+0xb2>
 80036fa:	4a2a      	ldr	r2, [pc, #168]	@ (80037a4 <__sflush_r+0x104>)
 80036fc:	410a      	asrs	r2, r1
 80036fe:	07d6      	lsls	r6, r2, #31
 8003700:	d427      	bmi.n	8003752 <__sflush_r+0xb2>
 8003702:	2200      	movs	r2, #0
 8003704:	6062      	str	r2, [r4, #4]
 8003706:	04d9      	lsls	r1, r3, #19
 8003708:	6922      	ldr	r2, [r4, #16]
 800370a:	6022      	str	r2, [r4, #0]
 800370c:	d504      	bpl.n	8003718 <__sflush_r+0x78>
 800370e:	1c42      	adds	r2, r0, #1
 8003710:	d101      	bne.n	8003716 <__sflush_r+0x76>
 8003712:	682b      	ldr	r3, [r5, #0]
 8003714:	b903      	cbnz	r3, 8003718 <__sflush_r+0x78>
 8003716:	6560      	str	r0, [r4, #84]	@ 0x54
 8003718:	6b61      	ldr	r1, [r4, #52]	@ 0x34
 800371a:	602f      	str	r7, [r5, #0]
 800371c:	b1b9      	cbz	r1, 800374e <__sflush_r+0xae>
 800371e:	f104 0344 	add.w	r3, r4, #68	@ 0x44
 8003722:	4299      	cmp	r1, r3
 8003724:	d002      	beq.n	800372c <__sflush_r+0x8c>
 8003726:	4628      	mov	r0, r5
 8003728:	f7ff fec2 	bl	80034b0 <_free_r>
 800372c:	2300      	movs	r3, #0
 800372e:	6363      	str	r3, [r4, #52]	@ 0x34
 8003730:	e00d      	b.n	800374e <__sflush_r+0xae>
 8003732:	2301      	movs	r3, #1
 8003734:	4628      	mov	r0, r5
 8003736:	47b0      	blx	r6
 8003738:	4602      	mov	r2, r0
 800373a:	1c50      	adds	r0, r2, #1
 800373c:	d1c9      	bne.n	80036d2 <__sflush_r+0x32>
 800373e:	682b      	ldr	r3, [r5, #0]
 8003740:	2b00      	cmp	r3, #0
 8003742:	d0c6      	beq.n	80036d2 <__sflush_r+0x32>
 8003744:	2b1d      	cmp	r3, #29
 8003746:	d001      	beq.n	800374c <__sflush_r+0xac>
 8003748:	2b16      	cmp	r3, #22
 800374a:	d11e      	bne.n	800378a <__sflush_r+0xea>
 800374c:	602f      	str	r7, [r5, #0]
 800374e:	2000      	movs	r0, #0
 8003750:	e022      	b.n	8003798 <__sflush_r+0xf8>
 8003752:	f043 0340 	orr.w	r3, r3, #64	@ 0x40
 8003756:	b21b      	sxth	r3, r3
 8003758:	e01b      	b.n	8003792 <__sflush_r+0xf2>
 800375a:	690f      	ldr	r7, [r1, #16]
 800375c:	2f00      	cmp	r7, #0
 800375e:	d0f6      	beq.n	800374e <__sflush_r+0xae>
 8003760:	0793      	lsls	r3, r2, #30
 8003762:	680e      	ldr	r6, [r1, #0]
 8003764:	bf08      	it	eq
 8003766:	694b      	ldreq	r3, [r1, #20]
 8003768:	600f      	str	r7, [r1, #0]
 800376a:	bf18      	it	ne
 800376c:	2300      	movne	r3, #0
 800376e:	eba6 0807 	sub.w	r8, r6, r7
 8003772:	608b      	str	r3, [r1, #8]
 8003774:	f1b8 0f00 	cmp.w	r8, #0
 8003778:	dde9      	ble.n	800374e <__sflush_r+0xae>
 800377a:	6a21      	ldr	r1, [r4, #32]
 800377c:	6aa6      	ldr	r6, [r4, #40]	@ 0x28
 800377e:	4643      	mov	r3, r8
 8003780:	463a      	mov	r2, r7
 8003782:	4628      	mov	r0, r5
 8003784:	47b0      	blx	r6
 8003786:	2800      	cmp	r0, #0
 8003788:	dc08      	bgt.n	800379c <__sflush_r+0xfc>
 800378a:	f9b4 300c 	ldrsh.w	r3, [r4, #12]
 800378e:	f043 0340 	orr.w	r3, r3, #64	@ 0x40
 8003792:	81a3      	strh	r3, [r4, #12]
 8003794:	f04f 30ff 	mov.w	r0, #4294967295
 8003798:	e8bd 81f0 	ldmia.w	sp!, {r4, r5, r6, r7, r8, pc}
 800379c:	4407      	add	r7, r0
 800379e:	eba8 0800 	sub.w	r8, r8, r0
 80037a2:	e7e7      	b.n	8003774 <__sflush_r+0xd4>
 80037a4:	dfbffffe 	.word	0xdfbffffe

080037a8 <_fflush_r>:
 80037a8:	b538      	push	{r3, r4, r5, lr}
 80037aa:	690b      	ldr	r3, [r1, #16]
 80037ac:	4605      	mov	r5, r0
 80037ae:	460c      	mov	r4, r1
 80037b0:	b913      	cbnz	r3, 80037b8 <_fflush_r+0x10>
 80037b2:	2500      	movs	r5, #0
 80037b4:	4628      	mov	r0, r5
 80037b6:	bd38      	pop	{r3, r4, r5, pc}
 80037b8:	b118      	cbz	r0, 80037c2 <_fflush_r+0x1a>
 80037ba:	6a03      	ldr	r3, [r0, #32]
 80037bc:	b90b      	cbnz	r3, 80037c2 <_fflush_r+0x1a>
 80037be:	f7ff fc81 	bl	80030c4 <__sinit>
 80037c2:	f9b4 300c 	ldrsh.w	r3, [r4, #12]
 80037c6:	2b00      	cmp	r3, #0
 80037c8:	d0f3      	beq.n	80037b2 <_fflush_r+0xa>
 80037ca:	6e62      	ldr	r2, [r4, #100]	@ 0x64
 80037cc:	07d0      	lsls	r0, r2, #31
 80037ce:	d404      	bmi.n	80037da <_fflush_r+0x32>
 80037d0:	0599      	lsls	r1, r3, #22
 80037d2:	d402      	bmi.n	80037da <_fflush_r+0x32>
 80037d4:	6da0      	ldr	r0, [r4, #88]	@ 0x58
 80037d6:	f7ff fe5a 	bl	800348e <__retarget_lock_acquire_recursive>
 80037da:	4628      	mov	r0, r5
 80037dc:	4621      	mov	r1, r4
 80037de:	f7ff ff5f 	bl	80036a0 <__sflush_r>
 80037e2:	6e63      	ldr	r3, [r4, #100]	@ 0x64
 80037e4:	07da      	lsls	r2, r3, #31
 80037e6:	4605      	mov	r5, r0
 80037e8:	d4e4      	bmi.n	80037b4 <_fflush_r+0xc>
 80037ea:	89a3      	ldrh	r3, [r4, #12]
 80037ec:	059b      	lsls	r3, r3, #22
 80037ee:	d4e1      	bmi.n	80037b4 <_fflush_r+0xc>
 80037f0:	6da0      	ldr	r0, [r4, #88]	@ 0x58
 80037f2:	f7ff fe4d 	bl	8003490 <__retarget_lock_release_recursive>
 80037f6:	e7dd      	b.n	80037b4 <_fflush_r+0xc>

080037f8 <__swhatbuf_r>:
 80037f8:	b570      	push	{r4, r5, r6, lr}
 80037fa:	460c      	mov	r4, r1
 80037fc:	f9b1 100e 	ldrsh.w	r1, [r1, #14]
 8003800:	2900      	cmp	r1, #0
 8003802:	b096      	sub	sp, #88	@ 0x58
 8003804:	4615      	mov	r5, r2
 8003806:	461e      	mov	r6, r3
 8003808:	da0d      	bge.n	8003826 <__swhatbuf_r+0x2e>
 800380a:	89a3      	ldrh	r3, [r4, #12]
 800380c:	f013 0f80 	tst.w	r3, #128	@ 0x80
 8003810:	f04f 0100 	mov.w	r1, #0
 8003814:	bf14      	ite	ne
 8003816:	2340      	movne	r3, #64	@ 0x40
 8003818:	f44f 6380 	moveq.w	r3, #1024	@ 0x400
 800381c:	2000      	movs	r0, #0
 800381e:	6031      	str	r1, [r6, #0]
 8003820:	602b      	str	r3, [r5, #0]
 8003822:	b016      	add	sp, #88	@ 0x58
 8003824:	bd70      	pop	{r4, r5, r6, pc}
 8003826:	466a      	mov	r2, sp
 8003828:	f000 f848 	bl	80038bc <_fstat_r>
 800382c:	2800      	cmp	r0, #0
 800382e:	dbec      	blt.n	800380a <__swhatbuf_r+0x12>
 8003830:	9901      	ldr	r1, [sp, #4]
 8003832:	f401 4170 	and.w	r1, r1, #61440	@ 0xf000
 8003836:	f5a1 5300 	sub.w	r3, r1, #8192	@ 0x2000
 800383a:	4259      	negs	r1, r3
 800383c:	4159      	adcs	r1, r3
 800383e:	f44f 6380 	mov.w	r3, #1024	@ 0x400
 8003842:	e7eb      	b.n	800381c <__swhatbuf_r+0x24>

08003844 <__smakebuf_r>:
 8003844:	898b      	ldrh	r3, [r1, #12]
 8003846:	b5f7      	push	{r0, r1, r2, r4, r5, r6, r7, lr}
 8003848:	079d      	lsls	r5, r3, #30
 800384a:	4606      	mov	r6, r0
 800384c:	460c      	mov	r4, r1
 800384e:	d507      	bpl.n	8003860 <__smakebuf_r+0x1c>
 8003850:	f104 0347 	add.w	r3, r4, #71	@ 0x47
 8003854:	6023      	str	r3, [r4, #0]
 8003856:	6123      	str	r3, [r4, #16]
 8003858:	2301      	movs	r3, #1
 800385a:	6163      	str	r3, [r4, #20]
 800385c:	b003      	add	sp, #12
 800385e:	bdf0      	pop	{r4, r5, r6, r7, pc}
 8003860:	ab01      	add	r3, sp, #4
 8003862:	466a      	mov	r2, sp
 8003864:	f7ff ffc8 	bl	80037f8 <__swhatbuf_r>
 8003868:	9f00      	ldr	r7, [sp, #0]
 800386a:	4605      	mov	r5, r0
 800386c:	4639      	mov	r1, r7
 800386e:	4630      	mov	r0, r6
 8003870:	f7ff fe8a 	bl	8003588 <_malloc_r>
 8003874:	b948      	cbnz	r0, 800388a <__smakebuf_r+0x46>
 8003876:	f9b4 300c 	ldrsh.w	r3, [r4, #12]
 800387a:	059a      	lsls	r2, r3, #22
 800387c:	d4ee      	bmi.n	800385c <__smakebuf_r+0x18>
 800387e:	f023 0303 	bic.w	r3, r3, #3
 8003882:	f043 0302 	orr.w	r3, r3, #2
 8003886:	81a3      	strh	r3, [r4, #12]
 8003888:	e7e2      	b.n	8003850 <__smakebuf_r+0xc>
 800388a:	89a3      	ldrh	r3, [r4, #12]
 800388c:	6020      	str	r0, [r4, #0]
 800388e:	f043 0380 	orr.w	r3, r3, #128	@ 0x80
 8003892:	81a3      	strh	r3, [r4, #12]
 8003894:	9b01      	ldr	r3, [sp, #4]
 8003896:	e9c4 0704 	strd	r0, r7, [r4, #16]
 800389a:	b15b      	cbz	r3, 80038b4 <__smakebuf_r+0x70>
 800389c:	f9b4 100e 	ldrsh.w	r1, [r4, #14]
 80038a0:	4630      	mov	r0, r6
 80038a2:	f000 f81d 	bl	80038e0 <_isatty_r>
 80038a6:	b128      	cbz	r0, 80038b4 <__smakebuf_r+0x70>
 80038a8:	89a3      	ldrh	r3, [r4, #12]
 80038aa:	f023 0303 	bic.w	r3, r3, #3
 80038ae:	f043 0301 	orr.w	r3, r3, #1
 80038b2:	81a3      	strh	r3, [r4, #12]
 80038b4:	89a3      	ldrh	r3, [r4, #12]
 80038b6:	431d      	orrs	r5, r3
 80038b8:	81a5      	strh	r5, [r4, #12]
 80038ba:	e7cf      	b.n	800385c <__smakebuf_r+0x18>

080038bc <_fstat_r>:
 80038bc:	b538      	push	{r3, r4, r5, lr}
 80038be:	4d07      	ldr	r5, [pc, #28]	@ (80038dc <_fstat_r+0x20>)
 80038c0:	2300      	movs	r3, #0
 80038c2:	4604      	mov	r4, r0
 80038c4:	4608      	mov	r0, r1
 80038c6:	4611      	mov	r1, r2
 80038c8:	602b      	str	r3, [r5, #0]
 80038ca:	f7fc ff6c 	bl	80007a6 <_fstat>
 80038ce:	1c43      	adds	r3, r0, #1
 80038d0:	d102      	bne.n	80038d8 <_fstat_r+0x1c>
 80038d2:	682b      	ldr	r3, [r5, #0]
 80038d4:	b103      	cbz	r3, 80038d8 <_fstat_r+0x1c>
 80038d6:	6023      	str	r3, [r4, #0]
 80038d8:	bd38      	pop	{r3, r4, r5, pc}
 80038da:	bf00      	nop
 80038dc:	20004b70 	.word	0x20004b70

080038e0 <_isatty_r>:
 80038e0:	b538      	push	{r3, r4, r5, lr}
 80038e2:	4d06      	ldr	r5, [pc, #24]	@ (80038fc <_isatty_r+0x1c>)
 80038e4:	2300      	movs	r3, #0
 80038e6:	4604      	mov	r4, r0
 80038e8:	4608      	mov	r0, r1
 80038ea:	602b      	str	r3, [r5, #0]
 80038ec:	f7fc ff60 	bl	80007b0 <_isatty>
 80038f0:	1c43      	adds	r3, r0, #1
 80038f2:	d102      	bne.n	80038fa <_isatty_r+0x1a>
 80038f4:	682b      	ldr	r3, [r5, #0]
 80038f6:	b103      	cbz	r3, 80038fa <_isatty_r+0x1a>
 80038f8:	6023      	str	r3, [r4, #0]
 80038fa:	bd38      	pop	{r3, r4, r5, pc}
 80038fc:	20004b70 	.word	0x20004b70

08003900 <_sbrk_r>:
 8003900:	b538      	push	{r3, r4, r5, lr}
 8003902:	4d06      	ldr	r5, [pc, #24]	@ (800391c <_sbrk_r+0x1c>)
 8003904:	2300      	movs	r3, #0
 8003906:	4604      	mov	r4, r0
 8003908:	4608      	mov	r0, r1
 800390a:	602b      	str	r3, [r5, #0]
 800390c:	f7fc ff54 	bl	80007b8 <_sbrk>
 8003910:	1c43      	adds	r3, r0, #1
 8003912:	d102      	bne.n	800391a <_sbrk_r+0x1a>
 8003914:	682b      	ldr	r3, [r5, #0]
 8003916:	b103      	cbz	r3, 800391a <_sbrk_r+0x1a>
 8003918:	6023      	str	r3, [r4, #0]
 800391a:	bd38      	pop	{r3, r4, r5, pc}
 800391c:	20004b70 	.word	0x20004b70

08003920 <_init>:
 8003920:	b5f8      	push	{r3, r4, r5, r6, r7, lr}
 8003922:	bf00      	nop
 8003924:	bcf8      	pop	{r3, r4, r5, r6, r7}
 8003926:	bc08      	pop	{r3}
 8003928:	469e      	mov	lr, r3
 800392a:	4770      	bx	lr

0800392c <_fini>:
 800392c:	b5f8      	push	{r3, r4, r5, r6, r7, lr}
 800392e:	bf00      	nop
 8003930:	bcf8      	pop	{r3, r4, r5, r6, r7}
 8003932:	bc08      	pop	{r3}
 8003934:	469e      	mov	lr, r3
 8003936:	4770      	bx	lr
